(dp0
S'133380'
p1
(dp2
S'boxname'
p3
S'Ramirez, Ar'
p4
sS'last'
p5
S'Ramirez'
p6
sS'id'
p7
g1
sS'name'
p8
S'Aramis Ramirez'
p9
sS'first'
p10
S'Aramis'
p11
ssS'518603'
p12
(dp13
g3
S'De Fratus'
p14
sg5
S'De Fratus'
p15
sg7
g12
sg8
S'Justin De Fratus'
p16
sg10
S'Justin'
p17
ssS'425509'
p18
(dp19
g3
S'Peralta'
p20
sg5
S'Peralta'
p21
sg7
g18
sg8
S'Jhonny Peralta'
p22
sg10
S'Jhonny'
p23
ssS'572020'
p24
(dp25
g3
S'Paxton'
p26
sg5
S'Paxton'
p27
sg7
g24
sg8
S'James Paxton'
p28
sg10
S'James'
p29
ssS'571431'
p30
(dp31
g3
S'Adams, M'
p32
sg5
S'Adams'
p33
sg7
g30
sg8
S'Matt Adams'
p34
sg10
S'Matt'
p35
ssS'407908'
p36
(dp37
g3
S'Peralta, J'
p38
sg5
S'Peralta'
p39
sg7
g36
sg8
S'Joel Peralta'
p40
sg10
S'Joel'
p41
ssS'542866'
p42
(dp43
g3
S'Adams, A'
p44
sg5
S'Adams'
p45
sg7
g42
sg8
S'Austin Adams'
p46
sg10
S'Austin'
p47
ssS'517369'
p48
(dp49
g3
S'Pirela'
p50
sg5
S'Pirela'
p51
sg7
g48
sg8
S'Jose Pirela'
p52
sg10
S'Jose'
p53
ssS'519076'
p54
(dp55
g3
S'Nelson'
p56
sg5
S'Nelson'
p57
sg7
g54
sg8
S'Jimmy Nelson'
p58
sg10
S'Jimmy'
p59
ssS'606273'
p60
(dp61
g3
S'Elias'
p62
sg5
S'Elias'
p63
sg7
g60
sg8
S'Roenis Elias'
p64
sg10
S'Roenis'
p65
ssS'459431'
p66
(dp67
g3
S'Saunders'
p68
sg5
S'Saunders'
p69
sg7
g66
sg8
S'Michael Saunders'
p70
sg10
S'Michael'
p71
ssS'471865'
p72
(dp73
g3
S'Gonzalez, C'
p74
sg5
S'Gonzalez'
p75
sg7
g72
sg8
S'Carlos Gonzalez'
p76
sg10
S'Carlos'
p77
ssS'453156'
p78
(dp79
g3
S'Brown, B'
p80
sg5
S'Brown'
p81
sg7
g78
sg8
S'Brooks Brown'
p82
sg10
S'Brooks'
p83
ssS'460060'
p84
(dp85
g3
S'Pennington'
p86
sg5
S'Pennington'
p87
sg7
g84
sg8
S'Cliff Pennington'
p88
sg10
S'Cliff'
p89
ssS'543807'
p90
(dp91
g3
S'Springer'
p92
sg5
S'Springer'
p93
sg7
g90
sg8
S'George Springer'
p94
sg10
S'George'
p95
ssS'453943'
p96
(dp97
g3
S'Frazier'
p98
sg5
S'Frazier'
p99
sg7
g96
sg8
S'Todd Frazier'
p100
sg10
S'Todd'
p101
ssS'453311'
p102
(dp103
g3
S'Lincecum'
p104
sg5
S'Lincecum'
p105
sg7
g102
sg8
S'Tim Lincecum'
p106
sg10
S'Tim'
p107
ssS'572180'
p108
(dp109
g3
S'Susac'
p110
sg5
S'Susac'
p111
sg7
g108
sg8
S'Andrew Susac'
p112
sg10
S'Andrew'
p113
ssS'491696'
p114
(dp115
g3
S'Sucre'
p116
sg5
S'Sucre'
p117
sg7
g114
sg8
S'Jesus Sucre'
p118
sg10
S'Jesus'
p119
ssS'457787'
p120
(dp121
g3
S'Espinosa'
p122
sg5
S'Espinosa'
p123
sg7
g120
sg8
S'Danny Espinosa'
p124
sg10
S'Danny'
p125
ssS'502032'
p126
(dp127
g3
S'Norris, B'
p128
sg5
S'Norris'
p129
sg7
g126
sg8
S'Bud Norris'
p130
sg10
S'Bud'
p131
ssS'462515'
p132
(dp133
g3
S'Socolovich'
p134
sg5
S'Socolovich'
p135
sg7
g132
sg8
S'Miguel Socolovich'
p136
sg10
S'Miguel'
p137
ssS'572403'
p138
(dp139
g3
S'VerHagen'
p140
sg5
S'VerHagen'
p141
sg7
g138
sg8
S'Drew VerHagen'
p142
sg10
S'Drew'
p143
ssS'450351'
p144
(dp145
g3
S'Wilson, C'
p146
sg5
S'Wilson'
p147
sg7
g144
sg8
S'C.J. Wilson'
p148
sg10
S'C.J.'
p149
ssS'542914'
p150
(dp151
g3
S'Bass'
p152
sg5
S'Bass'
p153
sg7
g150
sg8
S'Anthony Bass'
p154
sg10
S'Anthony'
p155
ssS'467793'
p156
(dp157
g3
S'Santana, C'
p158
sg5
S'Santana'
p159
sg7
g156
sg8
S'Carlos Santana'
p160
sg10
S'Carlos'
p161
ssS'622072'
p162
(dp163
g3
S'Wood, A'
p164
sg5
S'Wood'
p165
sg7
g162
sg8
S'Alex Wood'
p166
sg10
S'Alex'
p167
ssS'456071'
p168
(dp169
g3
S'Flande'
p170
sg5
S'Flande'
p171
sg7
g168
sg8
S'Yohan Flande'
p172
sg10
S'Yohan'
p173
ssS'518927'
p174
(dp175
g3
S'Layne'
p176
sg5
S'Layne'
p177
sg7
g174
sg8
S'Tommy Layne'
p178
sg10
S'Tommy'
p179
ssS'545333'
p180
(dp181
g3
S'Bauer'
p182
sg5
S'Bauer'
p183
sg7
g180
sg8
S'Trevor Bauer'
p184
sg10
S'Trevor'
p185
ssS'518516'
p186
(dp187
g3
S'Bumgarner'
p188
sg5
S'Bumgarner'
p189
sg7
g186
sg8
S'Madison Bumgarner'
p190
sg10
S'Madison'
p191
ssS'282332'
p192
(dp193
g3
S'Sabathia'
p194
sg5
S'Sabathia'
p195
sg7
g192
sg8
S'CC Sabathia'
p196
sg10
S'CC'
p197
ssS'475100'
p198
(dp199
g3
S'Van Slyke'
p200
sg5
S'Van Slyke'
p201
sg7
g198
sg8
S'Scott Van Slyke'
p202
sg10
S'Scott'
p203
ssS'502034'
p204
(dp205
g3
S'Burriss'
p206
sg5
S'Burriss'
p207
sg7
g204
sg8
S'Emmanuel Burriss'
p208
sg10
S'Emmanuel'
p209
ssS'455139'
p210
(dp211
g3
S'Chirinos'
p212
sg5
S'Chirinos'
p213
sg7
g210
sg8
S'Robinson Chirinos'
p214
sg10
S'Robinson'
p215
ssS'462101'
p216
(dp217
g3
S'Andrus'
p218
sg5
S'Andrus'
p219
sg7
g216
sg8
S'Elvis Andrus'
p220
sg10
S'Elvis'
p221
ssS'547888'
p222
(dp223
g3
S'Tanaka'
p224
sg5
S'Tanaka'
p225
sg7
g222
sg8
S'Masahiro Tanaka'
p226
sg10
S'Masahiro'
p227
ssS'571506'
p228
(dp229
g3
S'Bour'
p230
sg5
S'Bour'
p231
sg7
g228
sg8
S'Justin Bour'
p232
sg10
S'Justin'
p233
ssS'543557'
p234
(dp235
g3
S'Montgomery'
p236
sg5
S'Montgomery'
p237
sg7
g234
sg8
S'Mike Montgomery'
p238
sg10
S'Mike'
p239
ssS'458708'
p240
(dp241
g3
S'Tomlin'
p242
sg5
S'Tomlin'
p243
sg7
g240
sg8
S'Josh Tomlin'
p244
sg10
S'Josh'
p245
ssS'451532'
p246
(dp247
g3
S'Billingsley'
p248
sg5
S'Billingsley'
p249
sg7
g246
sg8
S'Chad Billingsley'
p250
sg10
S'Chad'
p251
ssS'571868'
p252
(dp253
g3
S'Krauss'
p254
sg5
S'Krauss'
p255
sg7
g252
sg8
S'Marc Krauss'
p256
sg10
S'Marc'
p257
ssS'573046'
p258
(dp259
g3
S'Morin'
p260
sg5
S'Morin'
p261
sg7
g258
sg8
S'Mike Morin'
p262
sg10
S'Mike'
p263
ssS'501983'
p264
(dp265
g3
S'Snider'
p266
sg5
S'Snider'
p267
sg7
g264
sg8
S'Travis Snider'
p268
sg10
S'Travis'
p269
ssS'501981'
p270
(dp271
g3
S'Davis, K'
p272
sg5
S'Davis'
p273
sg7
g270
sg8
S'Khris Davis'
p274
sg10
S'Khris'
p275
ssS'519105'
p276
(dp277
g3
S'Parker'
p278
sg5
S'Parker'
p279
sg7
g276
sg8
S'Jarrod Parker'
p280
sg10
S'Jarrod'
p281
ssS'150359'
p282
(dp283
g3
S'Burnett'
p284
sg5
S'Burnett'
p285
sg7
g282
sg8
S'A.J. Burnett'
p286
sg10
S'A.J.'
p287
ssS'346847'
p288
(dp289
g3
S'Beimel'
p290
sg5
S'Beimel'
p291
sg7
g288
sg8
S'Joe Beimel'
p292
sg10
S'Joe'
p293
ssS'596019'
p294
(dp295
g3
S'Lindor'
p296
sg5
S'Lindor'
p297
sg7
g294
sg8
S'Francisco Lindor'
p298
sg10
S'Francisco'
p299
ssS'534910'
p300
(dp301
g3
S'Hahn'
p302
sg5
S'Hahn'
p303
sg7
g300
sg8
S'Jesse Hahn'
p304
sg10
S'Jesse'
p305
ssS'543101'
p306
(dp307
g3
S'DeSclafani'
p308
sg5
S'DeSclafani'
p309
sg7
g306
sg8
S'Anthony DeSclafani'
p310
sg10
S'Anthony'
p311
ssS'493316'
p312
(dp313
g3
S'Cespedes'
p314
sg5
S'Cespedes'
p315
sg7
g312
sg8
S'Yoenis Cespedes'
p316
sg10
S'Yoenis'
p317
ssS'543510'
p318
(dp319
g3
S'McCann, J'
p320
sg5
S'McCann'
p321
sg7
g318
sg8
S'James McCann'
p322
sg10
S'James'
p323
ssS'489265'
p324
(dp325
g3
S'Romo'
p326
sg5
S'Romo'
p327
sg7
g324
sg8
S'Sergio Romo'
p328
sg10
S'Sergio'
p329
ssS'570663'
p330
(dp331
g3
S'Robles'
p332
sg5
S'Robles'
p333
sg7
g330
sg8
S'Hansel Robles'
p334
sg10
S'Hansel'
p335
ssS'543734'
p336
(dp337
g3
S'Rusin'
p338
sg5
S'Rusin'
p339
sg7
g336
sg8
S'Chris Rusin'
p340
sg10
S'Chris'
p341
ssS'518813'
p342
(dp343
g3
S'Holland, G'
p344
sg5
S'Holland'
p345
sg7
g342
sg8
S'Greg Holland'
p346
sg10
S'Greg'
p347
ssS'446653'
p348
(dp349
g3
S'Lobaton'
p350
sg5
S'Lobaton'
p351
sg7
g348
sg8
S'Jose Lobaton'
p352
sg10
S'Jose'
p353
ssS'592743'
p354
(dp355
g3
S'Simmons, A'
p356
sg5
S'Simmons'
p357
sg7
g354
sg8
S'Andrelton Simmons'
p358
sg10
S'Andrelton'
p359
ssS'543698'
p360
(dp361
g3
S'Roach'
p362
sg5
S'Roach'
p363
sg7
g360
sg8
S'Donn Roach'
p364
sg10
S'Donn'
p365
ssS'592662'
p366
(dp367
g3
S'Ray'
p368
sg5
S'Ray'
p369
sg7
g366
sg8
S'Robbie Ray'
p370
sg10
S'Robbie'
p371
ssS'592663'
p372
(dp373
g3
S'Realmuto'
p374
sg5
S'Realmuto'
p375
sg7
g372
sg8
S'J.T. Realmuto'
p376
sg10
S'J.T.'
p377
ssS'592192'
p378
(dp379
g3
S'Canha'
p380
sg5
S'Canha'
p381
sg7
g378
sg8
S'Mark Canha'
p382
sg10
S'Mark'
p383
ssS'608641'
p384
(dp385
g3
S'Cooney'
p386
sg5
S'Cooney'
p387
sg7
g384
sg8
S'Tim Cooney'
p388
sg10
S'Tim'
p389
ssS'504379'
p390
(dp391
g3
S'Nicasio'
p392
sg5
S'Nicasio'
p393
sg7
g390
sg8
S'Juan Nicasio'
p394
sg10
S'Juan'
p395
ssS'489305'
p396
(dp397
g3
S'Scruggs'
p398
sg5
S'Scruggs'
p399
sg7
g396
sg8
S'Xavier Scruggs'
p400
sg10
S'Xavier'
p401
ssS'595281'
p402
(dp403
g3
S'Kiermaier'
p404
sg5
S'Kiermaier'
p405
sg7
g402
sg8
S'Kevin Kiermaier'
p406
sg10
S'Kevin'
p407
ssS'425844'
p408
(dp409
g3
S'Greinke'
p410
sg5
S'Greinke'
p411
sg7
g408
sg8
S'Zack Greinke'
p412
sg10
S'Zack'
p413
ssS'456027'
p414
(dp415
g3
S'Ohlendorf'
p416
sg5
S'Ohlendorf'
p417
sg7
g414
sg8
S'Ross Ohlendorf'
p418
sg10
S'Ross'
p419
ssS'608665'
p420
(dp421
g3
S'Graveman'
p422
sg5
S'Graveman'
p423
sg7
g420
sg8
S'Kendall Graveman'
p424
sg10
S'Kendall'
p425
ssS'621209'
p426
(dp427
g3
S'Moscot'
p428
sg5
S'Moscot'
p429
sg7
g426
sg8
S'Jon Moscot'
p430
sg10
S'Jon'
p431
ssS'451584'
p432
(dp433
g3
S'Davis, W'
p434
sg5
S'Davis'
p435
sg7
g432
sg8
S'Wade Davis'
p436
sg10
S'Wade'
p437
ssS'461829'
p438
(dp439
g3
S'Gonzalez, G'
p440
sg5
S'Gonzalez'
p441
sg7
g438
sg8
S'Gio Gonzalez'
p442
sg10
S'Gio'
p443
ssS'594838'
p444
(dp445
g3
S'Gosselin'
p446
sg5
S'Gosselin'
p447
sg7
g444
sg8
S'Phil Gosselin'
p448
sg10
S'Phil'
p449
ssS'547943'
p450
(dp451
g3
S'Ryu'
p452
sg5
S'Ryu'
p453
sg7
g450
sg8
S'Hyun-Jin Ryu'
p454
sg10
S'Hyun-Jin'
p455
ssS'469134'
p456
(dp457
g3
S'Rogers, E'
p458
sg5
S'Rogers'
p459
sg7
g456
sg8
S'Esmil Rogers'
p460
sg10
S'Esmil'
p461
ssS'518953'
p462
(dp463
g3
S'Lough'
p464
sg5
S'Lough'
p465
sg7
g462
sg8
S'David Lough'
p466
sg10
S'David'
p467
ssS'501955'
p468
(dp469
g3
S'Chamberlain'
p470
sg5
S'Chamberlain'
p471
sg7
g468
sg8
S'Joba Chamberlain'
p472
sg10
S'Joba'
p473
ssS'592696'
p474
(dp475
g3
S'Rosario, E'
p476
sg5
S'Rosario'
p477
sg7
g474
sg8
S'Eddie Rosario'
p478
sg10
S'Eddie'
p479
ssS'475174'
p480
(dp481
g3
S'Alonso'
p482
sg5
S'Alonso'
p483
sg7
g480
sg8
S'Yonder Alonso'
p484
sg10
S'Yonder'
p485
ssS'400284'
p486
(dp487
g3
S'Utley'
p488
sg5
S'Utley'
p489
sg7
g486
sg8
S'Chase Utley'
p490
sg10
S'Chase'
p491
ssS'543877'
p492
(dp493
g3
S'Vazquez'
p494
sg5
S'Vazquez'
p495
sg7
g492
sg8
S'Christian Vazquez'
p496
sg10
S'Christian'
p497
ssS'457705'
p498
(dp499
g3
S'McCutchen'
p500
sg5
S'McCutchen'
p501
sg7
g498
sg8
S'Andrew McCutchen'
p502
sg10
S'Andrew'
p503
ssS'445170'
p504
(dp505
g3
S'Redmond'
p506
sg5
S'Redmond'
p507
sg7
g504
sg8
S'Todd Redmond'
p508
sg10
S'Todd'
p509
ssS'501957'
p510
(dp511
g3
S'Tillman'
p512
sg5
S'Tillman'
p513
sg7
g510
sg8
S'Chris Tillman'
p514
sg10
S'Chris'
p515
ssS'456496'
p516
(dp517
g3
S'Mateo'
p518
sg5
S'Mateo'
p519
sg7
g516
sg8
S'Marcos Mateo'
p520
sg10
S'Marcos'
p521
ssS'543037'
p522
(dp523
g3
S'Cole, G'
p524
sg5
S'Cole'
p525
sg7
g522
sg8
S'Gerrit Cole'
p526
sg10
S'Gerrit'
p527
ssS'543746'
p528
(dp529
g3
S'Scahill'
p530
sg5
S'Scahill'
p531
sg7
g528
sg8
S'Rob Scahill'
p532
sg10
S'Rob'
p533
ssS'543643'
p534
(dp535
g3
S'Pettibone'
p536
sg5
S'Pettibone'
p537
sg7
g534
sg8
S'Jonathan Pettibone'
p538
sg10
S'Jonathan'
p539
ssS'607074'
p540
(dp541
g3
S'Rodon'
p542
sg5
S'Rodon'
p543
sg7
g540
sg8
S'Carlos Rodon'
p544
sg10
S'Carlos'
p545
ssS'340192'
p546
(dp547
g3
S'Scutaro'
p548
sg5
S'Scutaro'
p549
sg7
g546
sg8
S'Marco Scutaro'
p550
sg10
S'Marco'
p551
ssS'502304'
p552
(dp553
g3
S'Carpenter, D'
p554
sg5
S'Carpenter'
p555
sg7
g552
sg8
S'David Carpenter'
p556
sg10
S'David'
p557
ssS'458085'
p558
(dp559
g3
S'Coghlan'
p560
sg5
S'Coghlan'
p561
sg7
g558
sg8
S'Chris Coghlan'
p562
sg10
S'Chris'
p563
ssS'573131'
p564
(dp565
g3
S'Ruf'
p566
sg5
S'Ruf'
p567
sg7
g564
sg8
S'Darin Ruf'
p568
sg10
S'Darin'
p569
ssS'446372'
p570
(dp571
g3
S'Kluber'
p572
sg5
S'Kluber'
p573
sg7
g570
sg8
S'Corey Kluber'
p574
sg10
S'Corey'
p575
ssS'429666'
p576
(dp577
g3
S'Hardy, J'
p578
sg5
S'Hardy'
p579
sg7
g576
sg8
S'J.J. Hardy'
p580
sg10
S'J.J.'
p581
ssS'429665'
p582
(dp583
g3
S'Encarnacion'
p584
sg5
S'Encarnacion'
p585
sg7
g582
sg8
S'Edwin Encarnacion'
p586
sg10
S'Edwin'
p587
ssS'429664'
p588
(dp589
g3
S'Cano'
p590
sg5
S'Cano'
p591
sg7
g588
sg8
S'Robinson Cano'
p592
sg10
S'Robinson'
p593
ssS'455009'
p594
(dp595
g3
S'Broxton'
p596
sg5
S'Broxton'
p597
sg7
g594
sg8
S'Jonathan Broxton'
p598
sg10
S'Jonathan'
p599
ssS'453923'
p600
(dp601
g3
S'Blanco, G'
p602
sg5
S'Blanco'
p603
sg7
g600
sg8
S'Gregor Blanco'
p604
sg10
S'Gregor'
p605
ssS'607259'
p606
(dp607
g3
S'Martinez, N'
p608
sg5
S'Martinez'
p609
sg7
g606
sg8
S'Nick Martinez'
p610
sg10
S'Nick'
p611
ssS'449181'
p612
(dp613
g3
S'Orlando'
p614
sg5
S'Orlando'
p615
sg7
g612
sg8
S'Paulo Orlando'
p616
sg10
S'Paulo'
p617
ssS'460059'
p618
(dp619
g3
S'Pelfrey'
p620
sg5
S'Pelfrey'
p621
sg7
g618
sg8
S'Mike Pelfrey'
p622
sg10
S'Mike'
p623
ssS'592261'
p624
(dp625
g3
S'DeShields'
p626
sg5
S'DeShields'
p627
sg7
g624
sg8
S'Delino DeShields'
p628
sg10
S'Delino'
p629
ssS'475243'
p630
(dp631
g3
S'Wood, T'
p632
sg5
S'Wood'
p633
sg7
g630
sg8
S'Travis Wood'
p634
sg10
S'Travis'
p635
ssS'434636'
p636
(dp637
g3
S'Pagan'
p638
sg5
S'Pagan'
p639
sg7
g636
sg8
S'Angel Pagan'
p640
sg10
S'Angel'
p641
ssS'592102'
p642
(dp643
g3
S'Allen'
p644
sg5
S'Allen'
p645
sg7
g642
sg8
S'Cody Allen'
p646
sg10
S'Cody'
p647
ssS'445213'
p648
(dp649
g3
S'Kintzler'
p650
sg5
S'Kintzler'
p651
sg7
g648
sg8
S'Brandon Kintzler'
p652
sg10
S'Brandon'
p653
ssS'571760'
p654
(dp655
g3
S'Heaney'
p656
sg5
S'Heaney'
p657
sg7
g654
sg8
S'Andrew Heaney'
p658
sg10
S'Andrew'
p659
ssS'571761'
p660
(dp661
g3
S'Heathcott'
p662
sg5
S'Heathcott'
p663
sg7
g660
sg8
S'Slade Heathcott'
p664
sg10
S'Slade'
p665
ssS'594736'
p666
(dp667
g3
S'Anderson, Co'
p668
sg5
S'Anderson'
p669
sg7
g666
sg8
S'Cody Anderson'
p670
sg10
S'Cody'
p671
ssS'516782'
p672
(dp673
g3
S'Marte, S'
p674
sg5
S'Marte'
p675
sg7
g672
sg8
S'Starling Marte'
p676
sg10
S'Starling'
p677
ssS'134181'
p678
(dp679
g3
S'Beltre'
p680
sg5
S'Beltre'
p681
sg7
g678
sg8
S'Adrian Beltre'
p682
sg10
S'Adrian'
p683
ssS'605177'
p684
(dp685
g3
S'Chafin'
p686
sg5
S'Chafin'
p687
sg7
g684
sg8
S'Andrew Chafin'
p688
sg10
S'Andrew'
p689
ssS'435559'
p690
(dp691
g3
S'Suzuki, K'
p692
sg5
S'Suzuki'
p693
sg7
g690
sg8
S'Kurt Suzuki'
p694
sg10
S'Kurt'
p695
ssS'460055'
p696
(dp697
g3
S'Mayberry'
p698
sg5
S'Mayberry'
p699
sg7
g696
sg8
S'John Mayberry'
p700
sg10
S'John'
p701
ssS'518863'
p702
(dp703
g3
S'Jordan'
p704
sg5
S'Jordan'
p705
sg7
g702
sg8
S'Taylor Jordan'
p706
sg10
S'Taylor'
p707
ssS'446263'
p708
(dp709
g3
S'Duda'
p710
sg5
S'Duda'
p711
sg7
g708
sg8
S'Lucas Duda'
p712
sg10
S'Lucas'
p713
ssS'471083'
p714
(dp715
g3
S'Montero, M'
p716
sg5
S'Montero'
p717
sg7
g714
sg8
S'Miguel Montero'
p718
sg10
S'Miguel'
p719
ssS'425784'
p720
(dp721
g3
S'Rivera, R'
p722
sg5
S'Rivera'
p723
sg7
g720
sg8
S'Rene Rivera'
p724
sg10
S'Rene'
p725
ssS'543475'
p726
(dp727
g3
S'Lyles'
p728
sg5
S'Lyles'
p729
sg7
g726
sg8
S'Jordan Lyles'
p730
sg10
S'Jordan'
p731
ssS'553878'
p732
(dp733
g3
S'Rivero'
p734
sg5
S'Rivero'
p735
sg7
g732
sg8
S'Felipe Rivero'
p736
sg10
S'Felipe'
p737
ssS'460026'
p738
(dp739
g3
S'Hundley'
p740
sg5
S'Hundley'
p741
sg7
g738
sg8
S'Nick Hundley'
p742
sg10
S'Nick'
p743
ssS'460024'
p744
(dp745
g3
S'Hochevar'
p746
sg5
S'Hochevar'
p747
sg7
g744
sg8
S'Luke Hochevar'
p748
sg10
S'Luke'
p749
ssS'407822'
p750
(dp751
g3
S'De La Rosa, J'
p752
sg5
S'De La Rosa'
p753
sg7
g750
sg8
S'Jorge De La Rosa'
p754
sg10
S'Jorge'
p755
ssS'445926'
p756
(dp757
g3
S'Chavez'
p758
sg5
S'Chavez'
p759
sg7
g756
sg8
S'Jesse Chavez'
p760
sg10
S'Jesse'
p761
ssS'276542'
p762
(dp763
g3
S'Benoit'
p764
sg5
S'Benoit'
p765
sg7
g762
sg8
S'Joaquin Benoit'
p766
sg10
S'Joaquin'
p767
ssS'519333'
p768
(dp769
g3
S'Szczur'
p770
sg5
S'Szczur'
p771
sg7
g768
sg8
S'Matt Szczur'
p772
sg10
S'Matt'
p773
ssS'518858'
p774
(dp775
g3
S'Jones, N'
p776
sg5
S'Jones'
p777
sg7
g774
sg8
S'Nate Jones'
p778
sg10
S'Nate'
p779
ssS'543238'
p780
(dp781
g3
S'Gose'
p782
sg5
S'Gose'
p783
sg7
g780
sg8
S'Anthony Gose'
p784
sg10
S'Anthony'
p785
ssS'514917'
p786
(dp787
g3
S'Hernandez, C'
p788
sg5
S'Hernandez'
p789
sg7
g786
sg8
S'Cesar Hernandez'
p790
sg10
S'Cesar'
p791
ssS'453211'
p792
(dp793
g3
S'Stubbs'
p794
sg5
S'Stubbs'
p795
sg7
g792
sg8
S'Drew Stubbs'
p796
sg10
S'Drew'
p797
ssS'572140'
p798
(dp799
g3
S'Skaggs'
p800
sg5
S'Skaggs'
p801
sg7
g798
sg8
S'Tyler Skaggs'
p802
sg10
S'Tyler'
p803
ssS'572143'
p804
(dp805
g3
S'Smith, B'
p806
sg5
S'Smith'
p807
sg7
g804
sg8
S'Burch Smith'
p808
sg10
S'Burch'
p809
ssS'453214'
p810
(dp811
g3
S'Wright, S'
p812
sg5
S'Wright'
p813
sg7
g810
sg8
S'Steven Wright'
p814
sg10
S'Steven'
p815
ssS'491159'
p816
(dp817
g3
S'Thatcher'
p818
sg5
S'Thatcher'
p819
sg7
g816
sg8
S'Joe Thatcher'
p820
sg10
S'Joe'
p821
ssS'570560'
p822
(dp823
g3
S'Sanchez, C'
p824
sg5
S'Sanchez'
p825
sg7
g822
sg8
S'Carlos Sanchez'
p826
sg10
S'Carlos'
p827
ssS'450314'
p828
(dp829
g3
S'Zobrist'
p830
sg5
S'Zobrist'
p831
sg7
g828
sg8
S'Ben Zobrist'
p832
sg10
S'Ben'
p833
ssS'400085'
p834
(dp835
g3
S'Suzuki, I'
p836
sg5
S'Suzuki'
p837
sg7
g834
sg8
S'Ichiro Suzuki'
p838
sg10
S'Ichiro'
p839
ssS'452220'
p840
(dp841
g3
S'Drew'
p842
sg5
S'Drew'
p843
sg7
g840
sg8
S'Stephen Drew'
p844
sg10
S'Stephen'
p845
ssS'279571'
p846
(dp847
g3
S'Belisle'
p848
sg5
S'Belisle'
p849
sg7
g846
sg8
S'Matt Belisle'
p850
sg10
S'Matt'
p851
ssS'506693'
p852
(dp853
g3
S'Alvarez, H'
p854
sg5
S'Alvarez'
p855
sg7
g852
sg8
S'Henderson Alvarez'
p856
sg10
S'Henderson'
p857
ssS'457448'
p858
(dp859
g3
S'Harrison, M'
p860
sg5
S'Harrison'
p861
sg7
g858
sg8
S'Matt Harrison'
p862
sg10
S'Matt'
p863
ssS'475115'
p864
(dp865
g3
S'Ross, T'
p866
sg5
S'Ross'
p867
sg7
g864
sg8
S'Tyson Ross'
p868
sg10
S'Tyson'
p869
ssS'595307'
p870
(dp871
g3
S'Maness'
p872
sg5
S'Maness'
p873
sg7
g870
sg8
S'Seth Maness'
p874
sg10
S'Seth'
p875
ssS'474699'
p876
(dp877
g3
S'Worley'
p878
sg5
S'Worley'
p879
sg7
g876
sg8
S'Vance Worley'
p880
sg10
S'Vance'
p881
ssS'605512'
p882
(dp883
g3
S'Tucker'
p884
sg5
S'Tucker'
p885
sg7
g882
sg8
S'Preston Tucker'
p886
sg10
S'Preston'
p887
ssS'542960'
p888
(dp889
g3
S'Brach'
p890
sg5
S'Brach'
p891
sg7
g888
sg8
S'Brad Brach'
p892
sg10
S'Brad'
p893
ssS'476192'
p894
(dp895
g3
S'Monell'
p896
sg5
S'Monell'
p897
sg7
g894
sg8
S'Johnny Monell'
p898
sg10
S'Johnny'
p899
ssS'435079'
p900
(dp901
g3
S'Kinsler'
p902
sg5
S'Kinsler'
p903
sg7
g900
sg8
S'Ian Kinsler'
p904
sg10
S'Ian'
p905
ssS'571466'
p906
(dp907
g3
S'Barnhart'
p908
sg5
S'Barnhart'
p909
sg7
g906
sg8
S'Tucker Barnhart'
p910
sg10
S'Tucker'
p911
ssS'449107'
p912
(dp913
g3
S'Aviles'
p914
sg5
S'Aviles'
p915
sg7
g912
sg8
S'Mike Aviles'
p916
sg10
S'Mike'
p917
ssS'608365'
p918
(dp919
g3
S'Russell, A'
p920
sg5
S'Russell'
p921
sg7
g918
sg8
S'Addison Russell'
p922
sg10
S'Addison'
p923
ssS'543506'
p924
(dp925
g3
S'Maurer'
p926
sg5
S'Maurer'
p927
sg7
g924
sg8
S'Brandon Maurer'
p928
sg10
S'Brandon'
p929
ssS'501925'
p930
(dp931
g3
S'Smith, J'
p932
sg5
S'Smith'
p933
sg7
g930
sg8
S'Joe Smith'
p934
sg10
S'Joe'
p935
ssS'544365'
p936
(dp937
g3
S'Banuelos'
p938
sg5
S'Banuelos'
p939
sg7
g936
sg8
S'Manny Banuelos'
p940
sg10
S'Manny'
p941
ssS'596144'
p942
(dp943
g3
S'Cuthbert'
p944
sg5
S'Cuthbert'
p945
sg7
g942
sg8
S'Cheslor Cuthbert'
p946
sg10
S'Cheslor'
p947
ssS'425492'
p948
(dp949
g3
S'Madson'
p950
sg5
S'Madson'
p951
sg7
g948
sg8
S'Ryan Madson'
p952
sg10
S'Ryan'
p953
ssS'519141'
p954
(dp955
g3
S'Pomeranz'
p956
sg5
S'Pomeranz'
p957
sg7
g954
sg8
S'Drew Pomeranz'
p958
sg10
S'Drew'
p959
ssS'456422'
p960
(dp961
g3
S'Bourn'
p962
sg5
S'Bourn'
p963
sg7
g960
sg8
S'Michael Bourn'
p964
sg10
S'Michael'
p965
ssS'519144'
p966
(dp967
g3
S'Porcello'
p968
sg5
S'Porcello'
p969
sg7
g966
sg8
S'Rick Porcello'
p970
sg10
S'Rick'
p971
ssS'453064'
p972
(dp973
g3
S'Tulowitzki'
p974
sg5
S'Tulowitzki'
p975
sg7
g972
sg8
S'Troy Tulowitzki'
p976
sg10
S'Troy'
p977
ssS'547982'
p978
(dp979
g3
S'Martin, L'
p980
sg5
S'Martin'
p981
sg7
g978
sg8
S'Leonys Martin'
p982
sg10
S'Leonys'
p983
ssS'448855'
p984
(dp985
g3
S'Guerra, Ju'
p986
sg5
S'Guerra'
p987
sg7
g984
sg8
S'Junior Guerra'
p988
sg10
S'Junior'
p989
ssS'519381'
p990
(dp991
g3
S'Venditte'
p992
sg5
S'Venditte'
p993
sg7
g990
sg8
S'Pat Venditte'
p994
sg10
S'Pat'
p995
ssS'519025'
p996
(dp997
g3
S'Middlebrooks'
p998
sg5
S'Middlebrooks'
p999
sg7
g996
sg8
S'Will Middlebrooks'
p1000
sg10
S'Will'
p1001
ssS'543590'
p1002
(dp1003
g3
S'Nieuwenhuis'
p1004
sg5
S'Nieuwenhuis'
p1005
sg7
g1002
sg8
S'Kirk Nieuwenhuis'
p1006
sg10
S'Kirk'
p1007
ssS'453265'
p1008
(dp1009
g3
S'Watson'
p1010
sg5
S'Watson'
p1011
sg7
g1008
sg8
S'Tony Watson'
p1012
sg10
S'Tony'
p1013
ssS'596119'
p1014
(dp1015
g3
S'Swihart'
p1016
sg5
S'Swihart'
p1017
sg7
g1014
sg8
S'Blake Swihart'
p1018
sg10
S'Blake'
p1019
ssS'519023'
p1020
(dp1021
g3
S'Mesoraco'
p1022
sg5
S'Mesoraco'
p1023
sg7
g1020
sg8
S'Devin Mesoraco'
p1024
sg10
S'Devin'
p1025
ssS'425543'
p1026
(dp1027
g3
S'Wilson, Jo'
p1028
sg5
S'Wilson'
p1029
sg7
g1026
sg8
S'Josh Wilson'
p1030
sg10
S'Josh'
p1031
ssS'150212'
p1032
(dp1033
g3
S'Cuddyer'
p1034
sg5
S'Cuddyer'
p1035
sg7
g1032
sg8
S'Michael Cuddyer'
p1036
sg10
S'Michael'
p1037
ssS'514913'
p1038
(dp1039
g3
S'Tejada'
p1040
sg5
S'Tejada'
p1041
sg7
g1038
sg8
S'Ruben Tejada'
p1042
sg10
S'Ruben'
p1043
ssS'543258'
p1044
(dp1045
g3
S'Guilmet'
p1046
sg5
S'Guilmet'
p1047
sg7
g1044
sg8
S'Preston Guilmet'
p1048
sg10
S'Preston'
p1049
ssS'425549'
p1050
(dp1051
g3
S'Barmes'
p1052
sg5
S'Barmes'
p1053
sg7
g1050
sg8
S'Clint Barmes'
p1054
sg10
S'Clint'
p1055
ssS'446308'
p1056
(dp1057
g3
S'Wieters'
p1058
sg5
S'Wieters'
p1059
sg7
g1056
sg8
S'Matt Wieters'
p1060
sg10
S'Matt'
p1061
ssS'543281'
p1062
(dp1063
g3
S'Harrison, J'
p1064
sg5
S'Harrison'
p1065
sg7
g1062
sg8
S'Josh Harrison'
p1066
sg10
S'Josh'
p1067
ssS'502748'
p1068
(dp1069
g3
S'Peacock'
p1070
sg5
S'Peacock'
p1071
sg7
g1068
sg8
S'Brad Peacock'
p1072
sg10
S'Brad'
p1073
ssS'453344'
p1074
(dp1075
g3
S'Morrow'
p1076
sg5
S'Morrow'
p1077
sg7
g1074
sg8
S'Brandon Morrow'
p1078
sg10
S'Brandon'
p1079
ssS'447755'
p1080
(dp1081
g3
S'Delabar'
p1082
sg5
S'Delabar'
p1083
sg7
g1080
sg8
S'Steve Delabar'
p1084
sg10
S'Steve'
p1085
ssS'467143'
p1086
(dp1087
g3
S'Gomez, H'
p1088
sg5
S'Gomez'
p1089
sg7
g1086
sg8
S'Hector Gomez'
p1090
sg10
S'Hector'
p1091
ssS'547989'
p1092
(dp1093
g3
S'Abreu'
p1094
sg5
S'Abreu'
p1095
sg7
g1092
sg8
S'Jose Abreu'
p1096
sg10
S'Jose'
p1097
ssS'545361'
p1098
(dp1099
g3
S'Trout'
p1100
sg5
S'Trout'
p1101
sg7
g1098
sg8
S'Mike Trout'
p1102
sg10
S'Mike'
p1103
ssS'527038'
p1104
(dp1105
g3
S'Flores, W'
p1106
sg5
S'Flores'
p1107
sg7
g1104
sg8
S'Wilmer Flores'
p1108
sg10
S'Wilmer'
p1109
ssS'489189'
p1110
(dp1111
g3
S'Outman'
p1112
sg5
S'Outman'
p1113
sg7
g1110
sg8
S'Josh Outman'
p1114
sg10
S'Josh'
p1115
ssS'453192'
p1116
(dp1117
g3
S'Miller, A'
p1118
sg5
S'Miller'
p1119
sg7
g1116
sg8
S'Andrew Miller'
p1120
sg10
S'Andrew'
p1121
ssS'592705'
p1122
(dp1123
g3
S'Rumbelow'
p1124
sg5
S'Rumbelow'
p1125
sg7
g1122
sg8
S'Nick Rumbelow'
p1126
sg10
S'Nick'
p1127
ssS'279824'
p1128
(dp1129
g3
S'Buehrle'
p1130
sg5
S'Buehrle'
p1131
sg7
g1128
sg8
S'Mark Buehrle'
p1132
sg10
S'Mark'
p1133
ssS'434442'
p1134
(dp1135
g3
S'Howell'
p1136
sg5
S'Howell'
p1137
sg7
g1134
sg8
S'J.P. Howell'
p1138
sg10
S'J.P.'
p1139
ssS'593140'
p1140
(dp1141
g3
S'Feliz, M'
p1142
sg5
S'Feliz'
p1143
sg7
g1140
sg8
S'Michael Feliz'
p1144
sg10
S'Michael'
p1145
ssS'457918'
p1146
(dp1147
g3
S'Happ'
p1148
sg5
S'Happ'
p1149
sg7
g1146
sg8
S'J.A. Happ'
p1150
sg10
S'J.A.'
p1151
ssS'462136'
p1152
(dp1153
g3
S'Estrada'
p1154
sg5
S'Estrada'
p1155
sg7
g1152
sg8
S'Marco Estrada'
p1156
sg10
S'Marco'
p1157
ssS'457744'
p1158
(dp1159
g3
S'Thompson, A'
p1160
sg5
S'Thompson'
p1161
sg7
g1158
sg8
S'Aaron Thompson'
p1162
sg10
S'Aaron'
p1163
ssS'621121'
p1164
(dp1165
g3
S'McCullers'
p1166
sg5
S'McCullers'
p1167
sg7
g1164
sg8
S'Lance McCullers'
p1168
sg10
S'Lance'
p1169
ssS'460156'
p1170
(dp1171
g3
S'Gomes, B'
p1172
sg5
S'Gomes'
p1173
sg7
g1170
sg8
S'Brandon Gomes'
p1174
sg10
S'Brandon'
p1175
ssS'572365'
p1176
(dp1177
g3
S'Goins'
p1178
sg5
S'Goins'
p1179
sg7
g1176
sg8
S'Ryan Goins'
p1180
sg10
S'Ryan'
p1181
ssS'452718'
p1182
(dp1183
g3
S'Kendrick, K'
p1184
sg5
S'Kendrick'
p1185
sg7
g1182
sg8
S'Kyle Kendrick'
p1186
sg10
S'Kyle'
p1187
ssS'502264'
p1188
(dp1189
g3
S'Adcock'
p1190
sg5
S'Adcock'
p1191
sg7
g1188
sg8
S'Nate Adcock'
p1192
sg10
S'Nate'
p1193
ssS'465674'
p1194
(dp1195
g3
S'Ciriaco'
p1196
sg5
S'Ciriaco'
p1197
sg7
g1194
sg8
S'Pedro Ciriaco'
p1198
sg10
S'Pedro'
p1199
ssS'452655'
p1200
(dp1201
g3
S'Span'
p1202
sg5
S'Span'
p1203
sg7
g1200
sg8
S'Denard Span'
p1204
sg10
S'Denard'
p1205
ssS'502261'
p1206
(dp1207
g3
S'Gillespie'
p1208
sg5
S'Gillespie'
p1209
sg7
g1206
sg8
S'Cole Gillespie'
p1210
sg10
S'Cole'
p1211
ssS'452657'
p1212
(dp1213
g3
S'Lester'
p1214
sg5
S'Lester'
p1215
sg7
g1212
sg8
S'Jon Lester'
p1216
sg10
S'Jon'
p1217
ssS'595014'
p1218
(dp1219
g3
S'Treinen'
p1220
sg5
S'Treinen'
p1221
sg7
g1218
sg8
S'Blake Treinen'
p1222
sg10
S'Blake'
p1223
ssS'465679'
p1224
(dp1225
g3
S'Deduno'
p1226
sg5
S'Deduno'
p1227
sg7
g1224
sg8
S'Samuel Deduno'
p1228
sg10
S'Samuel'
p1229
ssS'456696'
p1230
(dp1231
g3
S'Hernandez, D'
p1232
sg5
S'Hernandez'
p1233
sg7
g1230
sg8
S'David Hernandez'
p1234
sg10
S'David'
p1235
ssS'450729'
p1236
(dp1237
g3
S'Fister'
p1238
sg5
S'Fister'
p1239
sg7
g1236
sg8
S'Doug Fister'
p1240
sg10
S'Doug'
p1241
ssS'596748'
p1242
(dp1243
g3
S'Franco, M'
p1244
sg5
S'Franco'
p1245
sg7
g1242
sg8
S'Maikel Franco'
p1246
sg10
S'Maikel'
p1247
ssS'543459'
p1248
(dp1249
g3
S'Lombardozzi'
p1250
sg5
S'Lombardozzi'
p1251
sg7
g1248
sg8
S'Steve Lombardozzi'
p1252
sg10
S'Steve'
p1253
ssS'592407'
p1254
(dp1255
g3
S'Holaday'
p1256
sg5
S'Holaday'
p1257
sg7
g1254
sg8
S'Bryan Holaday'
p1258
sg10
S'Bryan'
p1259
ssS'572816'
p1260
(dp1261
g3
S'Dickerson, C'
p1262
sg5
S'Dickerson'
p1263
sg7
g1260
sg8
S'Corey Dickerson'
p1264
sg10
S'Corey'
p1265
ssS'468396'
p1266
(dp1267
g3
S'Ogando, A'
p1268
sg5
S'Ogando'
p1269
sg7
g1266
sg8
S'Alexi Ogando'
p1270
sg10
S'Alexi'
p1271
ssS'543606'
p1272
(dp1273
g3
S'Odorizzi'
p1274
sg5
S'Odorizzi'
p1275
sg7
g1272
sg8
S'Jake Odorizzi'
p1276
sg10
S'Jake'
p1277
ssS'571974'
p1278
(dp1279
g3
S'Murphy, J'
p1280
sg5
S'Murphy'
p1281
sg7
g1278
sg8
S'John Ryan Murphy'
p1282
sg10
S'John Ryan'
p1283
ssS'571976'
p1284
(dp1285
g3
S'Myers'
p1286
sg5
S'Myers'
p1287
sg7
g1284
sg8
S'Wil Myers'
p1288
sg10
S'Wil'
p1289
ssS'571970'
p1290
(dp1291
g3
S'Muncy'
p1292
sg5
S'Muncy'
p1293
sg7
g1290
sg8
S'Max Muncy'
p1294
sg10
S'Max'
p1295
ssS'542609'
p1296
(dp1297
g3
S'Burgos'
p1298
sg5
S'Burgos'
p1299
sg7
g1296
sg8
S'Enrique Burgos'
p1300
sg10
S'Enrique'
p1301
ssS'502046'
p1302
(dp1303
g3
S'Locke'
p1304
sg5
S'Locke'
p1305
sg7
g1302
sg8
S'Jeff Locke'
p1306
sg10
S'Jeff'
p1307
ssS'502517'
p1308
(dp1309
g3
S'Murphy, Dn'
p1310
sg5
S'Murphy'
p1311
sg7
g1308
sg8
S'Daniel Murphy'
p1312
sg10
S'Daniel'
p1313
ssS'502043'
p1314
(dp1315
g3
S'Gibson'
p1316
sg5
S'Gibson'
p1317
sg7
g1314
sg8
S'Kyle Gibson'
p1318
sg10
S'Kyle'
p1319
ssS'502042'
p1320
(dp1321
g3
S'Archer'
p1322
sg5
S'Archer'
p1323
sg7
g1320
sg8
S'Chris Archer'
p1324
sg10
S'Chris'
p1325
ssS'448178'
p1326
(dp1327
g3
S'Jepsen'
p1328
sg5
S'Jepsen'
p1329
sg7
g1326
sg8
S'Kevin Jepsen'
p1330
sg10
S'Kevin'
p1331
ssS'519299'
p1332
(dp1333
g3
S'Sogard'
p1334
sg5
S'Sogard'
p1335
sg7
g1332
sg8
S'Eric Sogard'
p1336
sg10
S'Eric'
p1337
ssS'474668'
p1338
(dp1339
g3
S'Surkamp'
p1340
sg5
S'Surkamp'
p1341
sg7
g1338
sg8
S'Eric Surkamp'
p1342
sg10
S'Eric'
p1343
ssS'448170'
p1344
(dp1345
g3
S'Ishikawa'
p1346
sg5
S'Ishikawa'
p1347
sg7
g1344
sg8
S'Travis Ishikawa'
p1348
sg10
S'Travis'
p1349
ssS'519293'
p1350
(dp1351
g3
S'Smith, W'
p1352
sg5
S'Smith'
p1353
sg7
g1350
sg8
S'Will Smith'
p1354
sg10
S'Will'
p1355
ssS'570632'
p1356
(dp1357
g3
S'Urena'
p1358
sg5
S'Urena'
p1359
sg7
g1356
sg8
S'Jose Urena'
p1360
sg10
S'Jose'
p1361
ssS'461858'
p1362
(dp1363
g3
S'Plouffe'
p1364
sg5
S'Plouffe'
p1365
sg7
g1362
sg8
S'Trevor Plouffe'
p1366
sg10
S'Trevor'
p1367
ssS'502190'
p1368
(dp1369
g3
S'Leake'
p1370
sg5
S'Leake'
p1371
sg7
g1368
sg8
S'Mike Leake'
p1372
sg10
S'Mike'
p1373
ssS'453539'
p1374
(dp1375
g3
S'Fuld'
p1376
sg5
S'Fuld'
p1377
sg7
g1374
sg8
S'Sam Fuld'
p1378
sg10
S'Sam'
p1379
ssS'519455'
p1380
(dp1381
g3
S'Zimmermann'
p1382
sg5
S'Zimmermann'
p1383
sg7
g1380
sg8
S'Jordan Zimmermann'
p1384
sg10
S'Jordan'
p1385
ssS'456488'
p1386
(dp1387
g3
S'Nunez, E'
p1388
sg5
S'Nunez'
p1389
sg7
g1386
sg8
S'Eduardo Nunez'
p1390
sg10
S'Eduardo'
p1391
ssS'434563'
p1392
(dp1393
g3
S'Ruiz'
p1394
sg5
S'Ruiz'
p1395
sg7
g1392
sg8
S'Carlos Ruiz'
p1396
sg10
S'Carlos'
p1397
ssS'547379'
p1398
(dp1399
g3
S'Perez, R'
p1400
sg5
S'Perez'
p1401
sg7
g1398
sg8
S'Roberto Perez'
p1402
sg10
S'Roberto'
p1403
ssS'434567'
p1404
(dp1405
g3
S'Soto'
p1406
sg5
S'Soto'
p1407
sg7
g1404
sg8
S'Geovany Soto'
p1408
sg10
S'Geovany'
p1409
ssS'491676'
p1410
(dp1411
g3
S'Hernandez, Go'
p1412
sg5
S'Hernandez'
p1413
sg7
g1410
sg8
S'Gorkys Hernandez'
p1414
sg10
S'Gorkys'
p1415
ssS'521692'
p1416
(dp1417
g3
S'Perez, S'
p1418
sg5
S'Perez'
p1419
sg7
g1416
sg8
S'Salvador Perez'
p1420
sg10
S'Salvador'
p1421
ssS'573109'
p1422
(dp1423
g3
S'Ramos, A'
p1424
sg5
S'Ramos'
p1425
sg7
g1422
sg8
S'A.J. Ramos'
p1426
sg10
S'A.J.'
p1427
ssS'429717'
p1428
(dp1429
g3
S'Haren'
p1430
sg5
S'Haren'
p1431
sg7
g1428
sg8
S'Dan Haren'
p1432
sg10
S'Dan'
p1433
ssS'408252'
p1434
(dp1435
g3
S'Phillips'
p1436
sg5
S'Phillips'
p1437
sg7
g1434
sg8
S'Brandon Phillips'
p1438
sg10
S'Brandon'
p1439
ssS'476633'
p1440
(dp1441
g3
S'Parmelee'
p1442
sg5
S'Parmelee'
p1443
sg7
g1440
sg8
S'Chris Parmelee'
p1444
sg10
S'Chris'
p1445
ssS'429713'
p1446
(dp1447
g3
S'Sizemore'
p1448
sg5
S'Sizemore'
p1449
sg7
g1446
sg8
S'Grady Sizemore'
p1450
sg10
S'Grady'
p1451
ssS'598287'
p1452
(dp1453
g3
S'Ramirez, N'
p1454
sg5
S'Ramirez'
p1455
sg7
g1452
sg8
S'Noe Ramirez'
p1456
sg10
S'Noe'
p1457
ssS'429711'
p1458
(dp1459
g3
S'Gutierrez, F'
p1460
sg5
S'Gutierrez'
p1461
sg7
g1458
sg8
S'Franklin Gutierrez'
p1462
sg10
S'Franklin'
p1463
ssS'407862'
p1464
(dp1465
g3
S'Johnson, R'
p1466
sg5
S'Johnson'
p1467
sg7
g1464
sg8
S'Reed Johnson'
p1468
sg10
S'Reed'
p1469
ssS'595465'
p1470
(dp1471
g3
S'Winkler'
p1472
sg5
S'Winkler'
p1473
sg7
g1470
sg8
S'Daniel Winkler'
p1474
sg10
S'Daniel'
p1475
ssS'460576'
p1476
(dp1477
g3
S'Gomez, C'
p1478
sg5
S'Gomez'
p1479
sg7
g1476
sg8
S'Carlos Gomez'
p1480
sg10
S'Carlos'
p1481
ssS'474892'
p1482
(dp1483
g3
S'Carter'
p1484
sg5
S'Carter'
p1485
sg7
g1482
sg8
S'Chris Carter'
p1486
sg10
S'Chris'
p1487
ssS'506560'
p1488
(dp1489
g3
S'Amarista'
p1490
sg5
S'Amarista'
p1491
sg7
g1488
sg8
S'Alexi Amarista'
p1492
sg10
S'Alexi'
p1493
ssS'592135'
p1494
(dp1495
g3
S'Bedrosian'
p1496
sg5
S'Bedrosian'
p1497
sg7
g1494
sg8
S'Cam Bedrosian'
p1498
sg10
S'Cam'
p1499
ssS'434661'
p1500
(dp1501
g3
S'McLouth'
p1502
sg5
S'McLouth'
p1503
sg7
g1500
sg8
S'Nate McLouth'
p1504
sg10
S'Nate'
p1505
ssS'451594'
p1506
(dp1507
g3
S'Fowler'
p1508
sg5
S'Fowler'
p1509
sg7
g1506
sg8
S'Dexter Fowler'
p1510
sg10
S'Dexter'
p1511
ssS'553993'
p1512
(dp1513
g3
S'Suarez'
p1514
sg5
S'Suarez'
p1515
sg7
g1512
sg8
S'Eugenio Suarez'
p1516
sg10
S'Eugenio'
p1517
ssS'488862'
p1518
(dp1519
g3
S'Escobar, Y'
p1520
sg5
S'Escobar'
p1521
sg7
g1518
sg8
S'Yunel Escobar'
p1522
sg10
S'Yunel'
p1523
ssS'408314'
p1524
(dp1525
g3
S'Reyes'
p1526
sg5
S'Reyes'
p1527
sg7
g1524
sg8
S'Jose Reyes'
p1528
sg10
S'Jose'
p1529
ssS'605141'
p1530
(dp1531
g3
S'Betts'
p1532
sg5
S'Betts'
p1533
sg7
g1530
sg8
S'Mookie Betts'
p1534
sg10
S'Mookie'
p1535
ssS'453329'
p1536
(dp1537
g3
S'Buchholz'
p1538
sg5
S'Buchholz'
p1539
sg7
g1536
sg8
S'Clay Buchholz'
p1540
sg10
S'Clay'
p1541
ssS'456121'
p1542
(dp1543
g3
S'Denorfia'
p1544
sg5
S'Denorfia'
p1545
sg7
g1542
sg8
S'Chris Denorfia'
p1546
sg10
S'Chris'
p1547
ssS'477132'
p1548
(dp1549
g3
S'Kershaw'
p1550
sg5
S'Kershaw'
p1551
sg7
g1548
sg8
S'Clayton Kershaw'
p1552
sg10
S'Clayton'
p1553
ssS'450212'
p1554
(dp1555
g3
S'Neshek'
p1556
sg5
S'Neshek'
p1557
sg7
g1554
sg8
S'Pat Neshek'
p1558
sg10
S'Pat'
p1559
ssS'519208'
p1560
(dp1561
g3
S'Robinson, C'
p1562
sg5
S'Robinson'
p1563
sg7
g1560
sg8
S'Clint Robinson'
p1564
sg10
S'Clint'
p1565
ssS'502126'
p1566
(dp1567
g3
S'Brown, D'
p1568
sg5
S'Brown'
p1569
sg7
g1566
sg8
S'Domonic Brown'
p1570
sg10
S'Domonic'
p1571
ssS'461314'
p1572
(dp1573
g3
S'Kemp'
p1574
sg5
S'Kemp'
p1575
sg7
g1572
sg8
S'Matt Kemp'
p1576
sg10
S'Matt'
p1577
ssS'452252'
p1578
(dp1579
g3
S'Lind'
p1580
sg5
S'Lind'
p1581
sg7
g1578
sg8
S'Adam Lind'
p1582
sg10
S'Adam'
p1583
ssS'444436'
p1584
(dp1585
g3
S'Webb, R'
p1586
sg5
S'Webb'
p1587
sg7
g1584
sg8
S'Ryan Webb'
p1588
sg10
S'Ryan'
p1589
ssS'543339'
p1590
(dp1591
g3
S'Hudson, D'
p1592
sg5
S'Hudson'
p1593
sg7
g1590
sg8
S'Daniel Hudson'
p1594
sg10
S'Daniel'
p1595
ssS'605388'
p1596
(dp1597
g3
S'Morgan'
p1598
sg5
S'Morgan'
p1599
sg7
g1596
sg8
S'Adam Morgan'
p1600
sg10
S'Adam'
p1601
ssS'624585'
p1602
(dp1603
g3
S'Soler'
p1604
sg5
S'Soler'
p1605
sg7
g1602
sg8
S'Jorge Soler'
p1606
sg10
S'Jorge'
p1607
ssS'489138'
p1608
(dp1609
g3
S'Moore, T'
p1610
sg5
S'Moore'
p1611
sg7
g1608
sg8
S'Tyler Moore'
p1612
sg10
S'Tyler'
p1613
ssS'425902'
p1614
(dp1615
g3
S'Fielder'
p1616
sg5
S'Fielder'
p1617
sg7
g1614
sg8
S'Prince Fielder'
p1618
sg10
S'Prince'
p1619
ssS'518614'
p1620
(dp1621
g3
S'Descalso'
p1622
sg5
S'Descalso'
p1623
sg7
g1620
sg8
S'Daniel Descalso'
p1624
sg10
S'Daniel'
p1625
ssS'425900'
p1626
(dp1627
g3
S'Navarro, D'
p1628
sg5
S'Navarro'
p1629
sg7
g1626
sg8
S'Dioner Navarro'
p1630
sg10
S'Dioner'
p1631
ssS'517370'
p1632
(dp1633
g3
S'Paredes'
p1634
sg5
S'Paredes'
p1635
sg7
g1632
sg8
S'Jimmy Paredes'
p1636
sg10
S'Jimmy'
p1637
ssS'518618'
p1638
(dp1639
g3
S'Dietrich'
p1640
sg5
S'Dietrich'
p1641
sg7
g1638
sg8
S'Derek Dietrich'
p1642
sg10
S'Derek'
p1643
ssS'430321'
p1644
(dp1645
g3
S'Young, D'
p1646
sg5
S'Young'
p1647
sg7
g1644
sg8
S'Delmon Young'
p1648
sg10
S'Delmon'
p1649
ssS'453222'
p1650
(dp1651
g3
S'Carroll'
p1652
sg5
S'Carroll'
p1653
sg7
g1650
sg8
S'Scott Carroll'
p1654
sg10
S'Scott'
p1655
ssS'518790'
p1656
(dp1657
g3
S'Heston'
p1658
sg5
S'Heston'
p1659
sg7
g1656
sg8
S'Chris Heston'
p1660
sg10
S'Chris'
p1661
ssS'543184'
p1662
(dp1663
g3
S'Friedrich'
p1664
sg5
S'Friedrich'
p1665
sg7
g1662
sg8
S'Christian Friedrich'
p1666
sg10
S'Christian'
p1667
ssS'543070'
p1668
(dp1669
g3
S'Crow'
p1670
sg5
S'Crow'
p1671
sg7
g1668
sg8
S'Aaron Crow'
p1672
sg10
S'Aaron'
p1673
ssS'460075'
p1674
(dp1675
g3
S'Braun'
p1676
sg5
S'Braun'
p1677
sg7
g1674
sg8
S'Ryan Braun'
p1678
sg10
S'Ryan'
p1679
ssS'519068'
p1680
(dp1681
g3
S'Navarro, E'
p1682
sg5
S'Navarro'
p1683
sg7
g1680
sg8
S'Efren Navarro'
p1684
sg10
S'Efren'
p1685
ssS'460077'
p1686
(dp1687
g3
S'Butera'
p1688
sg5
S'Butera'
p1689
sg7
g1686
sg8
S'Drew Butera'
p1690
sg10
S'Drew'
p1691
ssS'554429'
p1692
(dp1693
g3
S'Ackley'
p1694
sg5
S'Ackley'
p1695
sg7
g1692
sg8
S'Dustin Ackley'
p1696
sg10
S'Dustin'
p1697
ssS'449786'
p1698
(dp1699
g3
S'Corporan'
p1700
sg5
S'Corporan'
p1701
sg7
g1698
sg8
S'Carlos Corporan'
p1702
sg10
S'Carlos'
p1703
ssS'518792'
p1704
(dp1705
g3
S'Heyward'
p1706
sg5
S'Heyward'
p1707
sg7
g1704
sg8
S'Jason Heyward'
p1708
sg10
S'Jason'
p1709
ssS'572033'
p1710
(dp1711
g3
S'Phegley'
p1712
sg5
S'Phegley'
p1713
sg7
g1710
sg8
S'Josh Phegley'
p1714
sg10
S'Josh'
p1715
ssS'543213'
p1716
(dp1717
g3
S'Giavotella'
p1718
sg5
S'Giavotella'
p1719
sg7
g1716
sg8
S'Johnny Giavotella'
p1720
sg10
S'Johnny'
p1721
ssS'518886'
p1722
(dp1723
g3
S'Kimbrel'
p1724
sg5
S'Kimbrel'
p1725
sg7
g1722
sg8
S'Craig Kimbrel'
p1726
sg10
S'Craig'
p1727
ssS'543216'
p1728
(dp1729
g3
S'Gillaspie'
p1730
sg5
S'Gillaspie'
p1731
sg7
g1728
sg8
S'Conor Gillaspie'
p1732
sg10
S'Conor'
p1733
ssS'543219'
p1734
(dp1735
g3
S'Gilmartin'
p1736
sg5
S'Gilmartin'
p1737
sg7
g1734
sg8
S'Sean Gilmartin'
p1738
sg10
S'Sean'
p1739
ssS'446399'
p1740
(dp1741
g3
S'Cecil'
p1742
sg5
S'Cecil'
p1743
sg7
g1740
sg8
S'Brett Cecil'
p1744
sg10
S'Brett'
p1745
ssS'628452'
p1746
(dp1747
g3
S'Iglesias, R'
p1748
sg5
S'Iglesias'
p1749
sg7
g1746
sg8
S'Raisel Iglesias'
p1750
sg10
S'Raisel'
p1751
ssS'519344'
p1752
(dp1753
g3
S'Tepesch'
p1754
sg5
S'Tepesch'
p1755
sg7
g1752
sg8
S'Nick Tepesch'
p1756
sg10
S'Nick'
p1757
ssS'592178'
p1758
(dp1759
g3
S'Bryant'
p1760
sg5
S'Bryant'
p1761
sg7
g1758
sg8
S'Kris Bryant'
p1762
sg10
S'Kris'
p1763
ssS'543359'
p1764
(dp1765
g3
S'Jennings, Da'
p1766
sg5
S'Jennings'
p1767
sg7
g1764
sg8
S'Dan Jennings'
p1768
sg10
S'Dan'
p1769
ssS'593643'
p1770
(dp1771
g3
S'Alberto'
p1772
sg5
S'Alberto'
p1773
sg7
g1770
sg8
S'Hanser Alberto'
p1774
sg10
S'Hanser'
p1775
ssS'488771'
p1776
(dp1777
g3
S'Castro, J'
p1778
sg5
S'Castro'
p1779
sg7
g1776
sg8
S'Jason Castro'
p1780
sg10
S'Jason'
p1781
ssS'450282'
p1782
(dp1783
g3
S'Perkins'
p1784
sg5
S'Perkins'
p1785
sg7
g1782
sg8
S'Glen Perkins'
p1786
sg10
S'Glen'
p1787
ssS'445968'
p1788
(dp1789
g3
S'Eveland'
p1790
sg5
S'Eveland'
p1791
sg7
g1788
sg8
S'Dana Eveland'
p1792
sg10
S'Dana'
p1793
ssS'521230'
p1794
(dp1795
g3
S'Hendriks'
p1796
sg5
S'Hendriks'
p1797
sg7
g1794
sg8
S'Liam Hendriks'
p1798
sg10
S'Liam'
p1799
ssS'608700'
p1800
(dp1801
g3
S'Plawecki'
p1802
sg5
S'Plawecki'
p1803
sg7
g1800
sg8
S'Kevin Plawecki'
p1804
sg10
S'Kevin'
p1805
ssS'542924'
p1806
(dp1807
g3
S'Beliveau'
p1808
sg5
S'Beliveau'
p1809
sg7
g1806
sg8
S'Jeff Beliveau'
p1810
sg10
S'Jeff'
p1811
ssS'571510'
p1812
(dp1813
g3
S'Boyd'
p1814
sg5
S'Boyd'
p1815
sg7
g1812
sg8
S'Matt Boyd'
p1816
sg10
S'Matt'
p1817
ssS'592454'
p1818
(dp1819
g3
S'Kahnle'
p1820
sg5
S'Kahnle'
p1821
sg7
g1818
sg8
S'Tommy Kahnle'
p1822
sg10
S'Tommy'
p1823
ssS'571697'
p1824
(dp1825
g3
S'Gennett'
p1826
sg5
S'Gennett'
p1827
sg7
g1824
sg8
S'Scooter Gennett'
p1828
sg10
S'Scooter'
p1829
ssS'543434'
p1830
(dp1831
g3
S'Lawrie'
p1832
sg5
S'Lawrie'
p1833
sg7
g1830
sg8
S'Brett Lawrie'
p1834
sg10
S'Brett'
p1835
ssS'447714'
p1836
(dp1837
g3
S"O'Flaherty"
p1838
sg5
S"O'Flaherty"
p1839
sg7
g1836
sg8
S"Eric O'Flaherty"
p1840
sg10
S'Eric'
p1841
ssS'346874'
p1842
(dp1843
g3
S'Uribe'
p1844
sg5
S'Uribe'
p1845
sg7
g1842
sg8
S'Juan Uribe'
p1846
sg10
S'Juan'
p1847
ssS'449097'
p1848
(dp1849
g3
S'Papelbon'
p1850
sg5
S'Papelbon'
p1851
sg7
g1848
sg8
S'Jonathan Papelbon'
p1852
sg10
S'Jonathan'
p1853
ssS'501985'
p1854
(dp1855
g3
S'Minor'
p1856
sg5
S'Minor'
p1857
sg7
g1854
sg8
S'Mike Minor'
p1858
sg10
S'Mike'
p1859
ssS'457803'
p1860
(dp1861
g3
S'Bruce'
p1862
sg5
S'Bruce'
p1863
sg7
g1860
sg8
S'Jay Bruce'
p1864
sg10
S'Jay'
p1865
ssS'534812'
p1866
(dp1867
g3
S'Quackenbush'
p1868
sg5
S'Quackenbush'
p1869
sg7
g1866
sg8
S'Kevin Quackenbush'
p1870
sg10
S'Kevin'
p1871
ssS'543135'
p1872
(dp1873
g3
S'Eovaldi'
p1874
sg5
S'Eovaldi'
p1875
sg7
g1872
sg8
S'Nathan Eovaldi'
p1876
sg10
S'Nathan'
p1877
ssS'434622'
p1878
(dp1879
g3
S'Jimenez, U'
p1880
sg5
S'Jimenez'
p1881
sg7
g1878
sg8
S'Ubaldo Jimenez'
p1882
sg10
S'Ubaldo'
p1883
ssS'477569'
p1884
(dp1885
g3
S'Salas'
p1886
sg5
S'Salas'
p1887
sg7
g1884
sg8
S'Fernando Salas'
p1888
sg10
S'Fernando'
p1889
ssS'433579'
p1890
(dp1891
g3
S'Danks, J'
p1892
sg5
S'Danks'
p1893
sg7
g1890
sg8
S'John Danks'
p1894
sg10
S'John'
p1895
ssS'472528'
p1896
(dp1897
g3
S'Valbuena'
p1898
sg5
S'Valbuena'
p1899
sg7
g1896
sg8
S'Luis Valbuena'
p1900
sg10
S'Luis'
p1901
ssS'474443'
p1902
(dp1903
g3
S'De Jesus'
p1904
sg5
S'De Jesus'
p1905
sg7
g1902
sg8
S'Ivan De Jesus'
p1906
sg10
S'Ivan'
p1907
ssS'431094'
p1908
(dp1909
g3
S'Hill, A'
p1910
sg5
S'Hill'
p1911
sg7
g1908
sg8
S'Aaron Hill'
p1912
sg10
S'Aaron'
p1913
ssS'542255'
p1914
(dp1915
g3
S'Inciarte'
p1916
sg5
S'Inciarte'
p1917
sg7
g1914
sg8
S'Ender Inciarte'
p1918
sg10
S'Ender'
p1919
ssS'570256'
p1920
(dp1921
g3
S'Polanco, G'
p1922
sg5
S'Polanco'
p1923
sg7
g1920
sg8
S'Gregory Polanco'
p1924
sg10
S'Gregory'
p1925
ssS'434671'
p1926
(dp1927
g3
S'Sanchez, An'
p1928
sg5
S'Sanchez'
p1929
sg7
g1926
sg8
S'Anibal Sanchez'
p1930
sg10
S'Anibal'
p1931
ssS'542994'
p1932
(dp1933
g3
S'Butler, Jy'
p1934
sg5
S'Butler'
p1935
sg7
g1932
sg8
S'Joey Butler'
p1936
sg10
S'Joey'
p1937
ssS'543507'
p1938
(dp1939
g3
S'May'
p1940
sg5
S'May'
p1941
sg7
g1938
sg8
S'Trevor May'
p1942
sg10
S'Trevor'
p1943
ssS'593428'
p1944
(dp1945
g3
S'Bogaerts'
p1946
sg5
S'Bogaerts'
p1947
sg7
g1944
sg8
S'Xander Bogaerts'
p1948
sg10
S'Xander'
p1949
ssS'542993'
p1950
(dp1951
g3
S'Burns'
p1952
sg5
S'Burns'
p1953
sg7
g1950
sg8
S'Billy Burns'
p1954
sg10
S'Billy'
p1955
ssS'548337'
p1956
(dp1957
g3
S'Verrett'
p1958
sg5
S'Verrett'
p1959
sg7
g1956
sg8
S'Logan Verrett'
p1960
sg10
S'Logan'
p1961
ssS'571057'
p1962
(dp1963
g3
S'Garces'
p1964
sg5
S'Garces'
p1965
sg7
g1962
sg8
S'Frank Garces'
p1966
sg10
S'Frank'
p1967
ssS'448602'
p1968
(dp1969
g3
S'Reynolds, Ma'
p1970
sg5
S'Reynolds'
p1971
sg7
g1968
sg8
S'Mark Reynolds'
p1972
sg10
S'Mark'
p1973
ssS'543726'
p1974
(dp1975
g3
S'Ross, R'
p1976
sg5
S'Ross'
p1977
sg7
g1974
sg8
S'Robbie Ross'
p1978
sg10
S'Robbie'
p1979
ssS'434538'
p1980
(dp1981
g3
S'Liriano, F'
p1982
sg5
S'Liriano'
p1983
sg7
g1980
sg8
S'Francisco Liriano'
p1984
sg10
S'Francisco'
p1985
ssS'547973'
p1986
(dp1987
g3
S'Chapman, A'
p1988
sg5
S'Chapman'
p1989
sg7
g1986
sg8
S'Aroldis Chapman'
p1990
sg10
S'Aroldis'
p1991
ssS'448609'
p1992
(dp1993
g3
S'Sipp'
p1994
sg5
S'Sipp'
p1995
sg7
g1992
sg8
S'Tony Sipp'
p1996
sg10
S'Tony'
p1997
ssS'433217'
p1998
(dp1999
g3
S'Blanco, A'
p2000
sg5
S'Blanco'
p2001
sg7
g1998
sg8
S'Andres Blanco'
p2002
sg10
S'Andres'
p2003
ssS'592329'
p2004
(dp2005
g3
S'Garcia, Ja'
p2006
sg5
S'Garcia'
p2007
sg7
g2004
sg8
S'Jason Garcia'
p2008
sg10
S'Jason'
p2009
ssS'592677'
p2010
(dp2011
g3
S'Riefenhauser'
p2012
sg5
S'Riefenhauser'
p2013
sg7
g2010
sg8
S'C.J. Riefenhauser'
p2014
sg10
S'C.J.'
p2015
ssS'621035'
p2016
(dp2017
g3
S'Taylor, C'
p2018
sg5
S'Taylor'
p2019
sg7
g2016
sg8
S'Chris Taylor'
p2020
sg10
S'Chris'
p2021
ssS'116338'
p2022
(dp2023
g3
S'Hunter, To'
p2024
sg5
S'Hunter'
p2025
sg7
g2022
sg8
S'Torii Hunter'
p2026
sg10
S'Torii'
p2027
ssS'430832'
p2028
(dp2029
g3
S'Bautista'
p2030
sg5
S'Bautista'
p2031
sg7
g2028
sg8
S'Jose Bautista'
p2032
sg10
S'Jose'
p2033
ssS'594809'
p2034
(dp2035
g3
S'Eaton'
p2036
sg5
S'Eaton'
p2037
sg7
g2034
sg8
S'Adam Eaton'
p2038
sg10
S'Adam'
p2039
ssS'461815'
p2040
(dp2041
g3
S'Murphy, Dv'
p2042
sg5
S'Murphy'
p2043
sg7
g2040
sg8
S'David Murphy'
p2044
sg10
S'David'
p2045
ssS'545350'
p2046
(dp2047
g3
S'Marisnick'
p2048
sg5
S'Marisnick'
p2049
sg7
g2046
sg8
S'Jake Marisnick'
p2050
sg10
S'Jake'
p2051
ssS'623406'
p2052
(dp2053
g3
S'Simmons, S'
p2054
sg5
S'Simmons'
p2055
sg7
g2052
sg8
S'Shae Simmons'
p2056
sg10
S'Shae'
p2057
ssS'572193'
p2058
(dp2059
g3
S'Tepera'
p2060
sg5
S'Tepera'
p2061
sg7
g2058
sg8
S'Ryan Tepera'
p2062
sg10
S'Ryan'
p2063
ssS'546318'
p2064
(dp2065
g3
S'Herrera, O'
p2066
sg5
S'Herrera'
p2067
sg7
g2064
sg8
S'Odubel Herrera'
p2068
sg10
S'Odubel'
p2069
ssS'445060'
p2070
(dp2071
g3
S'Nolasco'
p2072
sg5
S'Nolasco'
p2073
sg7
g2070
sg8
S'Ricky Nolasco'
p2074
sg10
S'Ricky'
p2075
ssS'445612'
p2076
(dp2077
g3
S'Thayer'
p2078
sg5
S'Thayer'
p2079
sg7
g2076
sg8
S'Dale Thayer'
p2080
sg10
S'Dale'
p2081
ssS'425877'
p2082
(dp2083
g3
S'Molina'
p2084
sg5
S'Molina'
p2085
sg7
g2082
sg8
S'Yadier Molina'
p2086
sg10
S'Yadier'
p2087
ssS'572821'
p2088
(dp2089
g3
S'Dozier'
p2090
sg5
S'Dozier'
p2091
sg7
g2088
sg8
S'Brian Dozier'
p2092
sg10
S'Brian'
p2093
ssS'502706'
p2094
(dp2095
g3
S'Holland, D'
p2096
sg5
S'Holland'
p2097
sg7
g2094
sg8
S'Derek Holland'
p2098
sg10
S'Derek'
p2099
ssS'571800'
p2100
(dp2101
g3
S'Hutchison'
p2102
sg5
S'Hutchison'
p2103
sg7
g2100
sg8
S'Drew Hutchison'
p2104
sg10
S'Drew'
p2105
ssS'455755'
p2106
(dp2107
g3
S'Stewart'
p2108
sg5
S'Stewart'
p2109
sg7
g2106
sg8
S'Chris Stewart'
p2110
sg10
S'Chris'
p2111
ssS'570482'
p2112
(dp2113
g3
S'Urshela'
p2114
sg5
S'Urshela'
p2115
sg7
g2112
sg8
S'Giovanny Urshela'
p2116
sg10
S'Giovanny'
p2117
ssS'488810'
p2118
(dp2119
g3
S'Cruz, T'
p2120
sg5
S'Cruz'
p2121
sg7
g2118
sg8
S'Tony Cruz'
p2122
sg10
S'Tony'
p2123
ssS'501255'
p2124
(dp2125
g3
S'Ynoa, R'
p2126
sg5
S'Ynoa'
p2127
sg7
g2124
sg8
S'Rafael Ynoa'
p2128
sg10
S'Rafael'
p2129
ssS'461325'
p2130
(dp2131
g3
S'Clippard'
p2132
sg5
S'Clippard'
p2133
sg7
g2130
sg8
S'Tyler Clippard'
p2134
sg10
S'Tyler'
p2135
ssS'489267'
p2136
(dp2137
g3
S'Rosales'
p2138
sg5
S'Rosales'
p2139
sg7
g2136
sg8
S'Adam Rosales'
p2140
sg10
S'Adam'
p2141
ssS'502171'
p2142
(dp2143
g3
S'Cobb'
p2144
sg5
S'Cobb'
p2145
sg7
g2142
sg8
S'Alex Cobb'
p2146
sg10
S'Alex'
p2147
ssS'451596'
p2148
(dp2149
g3
S'Gallardo'
p2150
sg5
S'Gallardo'
p2151
sg7
g2148
sg8
S'Yovani Gallardo'
p2152
sg10
S'Yovani'
p2153
ssS'446899'
p2154
(dp2155
g3
S'Ziegler'
p2156
sg5
S'Ziegler'
p2157
sg7
g2154
sg8
S'Brad Ziegler'
p2158
sg10
S'Brad'
p2159
ssS'595386'
p2160
(dp2161
g3
S'Rogers, J'
p2162
sg5
S'Rogers'
p2163
sg7
g2160
sg8
S'Jason Rogers'
p2164
sg10
S'Jason'
p2165
ssS'455759'
p2166
(dp2167
g3
S'Young, C'
p2168
sg5
S'Young'
p2169
sg7
g2166
sg8
S'Chris Young'
p2170
sg10
S'Chris'
p2171
ssS'452104'
p2172
(dp2173
g3
S'Headley'
p2174
sg5
S'Headley'
p2175
sg7
g2172
sg8
S'Chase Headley'
p2176
sg10
S'Chase'
p2177
ssS'408047'
p2178
(dp2179
g3
S'Morneau'
p2180
sg5
S'Morneau'
p2181
sg7
g2178
sg8
S'Justin Morneau'
p2182
sg10
S'Justin'
p2183
ssS'500779'
p2184
(dp2185
g3
S'Quintana'
p2186
sg5
S'Quintana'
p2187
sg7
g2184
sg8
S'Jose Quintana'
p2188
sg10
S'Jose'
p2189
ssS'408045'
p2190
(dp2191
g3
S'Mauer'
p2192
sg5
S'Mauer'
p2193
sg7
g2190
sg8
S'Joe Mauer'
p2194
sg10
S'Joe'
p2195
ssS'408042'
p2196
(dp2197
g3
S'Laird'
p2198
sg5
S'Laird'
p2199
sg7
g2196
sg8
S'Gerald Laird'
p2200
sg10
S'Gerald'
p2201
ssS'435400'
p2202
(dp2203
g3
S'Motte'
p2204
sg5
S'Motte'
p2205
sg7
g2202
sg8
S'Jason Motte'
p2206
sg10
S'Jason'
p2207
ssS'502481'
p2208
(dp2209
g3
S'Dyson, J'
p2210
sg5
S'Dyson'
p2211
sg7
g2208
sg8
S'Jarrod Dyson'
p2212
sg10
S'Jarrod'
p2213
ssS'425783'
p2214
(dp2215
g3
S'Choo'
p2216
sg5
S'Choo'
p2217
sg7
g2214
sg8
S'Shin-Soo Choo'
p2218
sg10
S'Shin-Soo'
p2219
ssS'612672'
p2220
(dp2221
g3
S'Chen'
p2222
sg5
S'Chen'
p2223
sg7
g2220
sg8
S'Wei-Yin Chen'
p2224
sg10
S'Wei-Yin'
p2225
ssS'435401'
p2226
(dp2227
g3
S'Schumaker'
p2228
sg5
S'Schumaker'
p2229
sg7
g2226
sg8
S'Skip Schumaker'
p2230
sg10
S'Skip'
p2231
ssS'453562'
p2232
(dp2233
g3
S'Arrieta'
p2234
sg5
S'Arrieta'
p2235
sg7
g2232
sg8
S'Jake Arrieta'
p2236
sg10
S'Jake'
p2237
ssS'519240'
p2238
(dp2239
g3
S'Rzepczynski'
p2240
sg5
S'Rzepczynski'
p2241
sg7
g2238
sg8
S'Marc Rzepczynski'
p2242
sg10
S'Marc'
p2243
ssS'453400'
p2244
(dp2245
g3
S'Johnson, C'
p2246
sg5
S'Johnson'
p2247
sg7
g2244
sg8
S'Chris Johnson'
p2248
sg10
S'Chris'
p2249
ssS'519242'
p2250
(dp2251
g3
S'Sale'
p2252
sg5
S'Sale'
p2253
sg7
g2250
sg8
S'Chris Sale'
p2254
sg10
S'Chris'
p2255
ssS'453568'
p2256
(dp2257
g3
S'Blackmon'
p2258
sg5
S'Blackmon'
p2259
sg7
g2256
sg8
S'Charlie Blackmon'
p2260
sg10
S'Charlie'
p2261
ssS'571771'
p2262
(dp2263
g3
S'Hernandez, E'
p2264
sg5
S'Hernandez'
p2265
sg7
g2262
sg8
S'Enrique Hernandez'
p2266
sg10
S'Enrique'
p2267
ssS'451661'
p2268
(dp2269
g3
S'Fields, J'
p2270
sg5
S'Fields'
p2271
sg7
g2268
sg8
S'Josh Fields'
p2272
sg10
S'Josh'
p2273
ssS'544925'
p2274
(dp2275
g3
S'den Dekker'
p2276
sg5
S'den Dekker'
p2277
sg7
g2274
sg8
S'Matt den Dekker'
p2278
sg10
S'Matt'
p2279
ssS'460003'
p2280
(dp2281
g3
S'Teagarden'
p2282
sg5
S'Teagarden'
p2283
sg7
g2280
sg8
S'Taylor Teagarden'
p2284
sg10
S'Taylor'
p2285
ssS'572122'
p2286
(dp2287
g3
S'Seager'
p2288
sg5
S'Seager'
p2289
sg7
g2286
sg8
S'Kyle Seager'
p2290
sg10
S'Kyle'
p2291
ssS'502004'
p2292
(dp2293
g3
S'Kontos'
p2294
sg5
S'Kontos'
p2295
sg7
g2292
sg8
S'George Kontos'
p2296
sg10
S'George'
p2297
ssS'430935'
p2298
(dp2299
g3
S'Hamels'
p2300
sg5
S'Hamels'
p2301
sg7
g2298
sg8
S'Cole Hamels'
p2302
sg10
S'Cole'
p2303
ssS'502009'
p2304
(dp2305
g3
S'Latos'
p2306
sg5
S'Latos'
p2307
sg7
g2304
sg8
S'Mat Latos'
p2308
sg10
S'Mat'
p2309
ssS'572070'
p2310
(dp2311
g3
S'Richards'
p2312
sg5
S'Richards'
p2313
sg7
g2310
sg8
S'Garrett Richards'
p2314
sg10
S'Garrett'
p2315
ssS'407812'
p2316
(dp2317
g3
S'Holliday'
p2318
sg5
S'Holliday'
p2319
sg7
g2316
sg8
S'Matt Holliday'
p2320
sg10
S'Matt'
p2321
ssS'425796'
p2322
(dp2323
g3
S'Francoeur'
p2324
sg5
S'Francoeur'
p2325
sg7
g2322
sg8
S'Jeff Francoeur'
p2326
sg10
S'Jeff'
p2327
ssS'429781'
p2328
(dp2329
g3
S'Correia'
p2330
sg5
S'Correia'
p2331
sg7
g2328
sg8
S'Kevin Correia'
p2332
sg10
S'Kevin'
p2333
ssS'543853'
p2334
(dp2335
g3
S'Thompson, Ta'
p2336
sg5
S'Thompson'
p2337
sg7
g2334
sg8
S'Taylor Thompson'
p2338
sg10
S'Taylor'
p2339
ssS'488726'
p2340
(dp2341
g3
S'Brantley'
p2342
sg5
S'Brantley'
p2343
sg7
g2340
sg8
S'Michael Brantley'
p2344
sg10
S'Michael'
p2345
ssS'518653'
p2346
(dp2347
g3
S'Elmore'
p2348
sg5
S'Elmore'
p2349
sg7
g2346
sg8
S'Jake Elmore'
p2350
sg10
S'Jake'
p2351
ssS'488721'
p2352
(dp2353
g3
S'Bourjos'
p2354
sg5
S'Bourjos'
p2355
sg7
g2352
sg8
S'Peter Bourjos'
p2356
sg10
S'Peter'
p2357
ssS'571927'
p2358
(dp2359
g3
S'Matz'
p2360
sg5
S'Matz'
p2361
sg7
g2358
sg8
S'Steven Matz'
p2362
sg10
S'Steven'
p2363
ssS'475479'
p2364
(dp2365
g3
S'Phelps'
p2366
sg5
S'Phelps'
p2367
sg7
g2364
sg8
S'David Phelps'
p2368
sg10
S'David'
p2369
ssS'519306'
p2370
(dp2371
g3
S'Souza Jr.'
p2372
sg5
S'Souza Jr.'
p2373
sg7
g2370
sg8
S'Steven Souza Jr.'
p2374
sg10
S'Steven'
p2375
ssS'434158'
p2376
(dp2377
g3
S'Granderson'
p2378
sg5
S'Granderson'
p2379
sg7
g2376
sg8
S'Curtis Granderson'
p2380
sg10
S'Curtis'
p2381
ssS'429722'
p2382
(dp2383
g3
S'Santana, E'
p2384
sg5
S'Santana'
p2385
sg7
g2382
sg8
S'Ervin Santana'
p2386
sg10
S'Ervin'
p2387
ssS'519301'
p2388
(dp2389
g3
S'Solis'
p2390
sg5
S'Solis'
p2391
sg7
g2388
sg8
S'Sammy Solis'
p2392
sg10
S'Sammy'
p2393
ssS'541645'
p2394
(dp2395
g3
S'Garcia, A'
p2396
sg5
S'Garcia'
p2397
sg7
g2394
sg8
S'Avisail Garcia'
p2398
sg10
S'Avisail'
p2399
ssS'541640'
p2400
(dp2401
g3
S'Ramirez, E'
p2402
sg5
S'Ramirez'
p2403
sg7
g2400
sg8
S'Erasmo Ramirez'
p2404
sg10
S'Erasmo'
p2405
ssS'605113'
p2406
(dp2407
g3
S'Ahmed'
p2408
sg5
S'Ahmed'
p2409
sg7
g2406
sg8
S'Nick Ahmed'
p2410
sg10
S'Nick'
p2411
ssS'408234'
p2412
(dp2413
g3
S'Cabrera, M'
p2414
sg5
S'Cabrera'
p2415
sg7
g2412
sg8
S'Miguel Cabrera'
p2416
sg10
S'Miguel'
p2417
ssS'445276'
p2418
(dp2419
g3
S'Jansen'
p2420
sg5
S'Jansen'
p2421
sg7
g2418
sg8
S'Kenley Jansen'
p2422
sg10
S'Kenley'
p2423
ssS'576397'
p2424
(dp2425
g3
S'Gyorko'
p2426
sg5
S'Gyorko'
p2427
sg7
g2424
sg8
S'Jedd Gyorko'
p2428
sg10
S'Jedd'
p2429
ssS'493596'
p2430
(dp2431
g3
S'Beckham, G'
p2432
sg5
S'Beckham'
p2433
sg7
g2430
sg8
S'Gordon Beckham'
p2434
sg10
S'Gordon'
p2435
ssS'502671'
p2436
(dp2437
g3
S'Goldschmidt'
p2438
sg5
S'Goldschmidt'
p2439
sg7
g2436
sg8
S'Paul Goldschmidt'
p2440
sg10
S'Paul'
p2441
ssS'594792'
p2442
(dp2443
g3
S'Cunniff'
p2444
sg5
S'Cunniff'
p2445
sg7
g2442
sg8
S'Brandon Cunniff'
p2446
sg10
S'Brandon'
p2447
ssS'471911'
p2448
(dp2449
g3
S'Carrasco'
p2450
sg5
S'Carrasco'
p2451
sg7
g2448
sg8
S'Carlos Carrasco'
p2452
sg10
S'Carlos'
p2453
ssS'466948'
p2454
(dp2455
g3
S'Machi'
p2456
sg5
S'Machi'
p2457
sg7
g2454
sg8
S'Jean Machi'
p2458
sg10
S'Jean'
p2459
ssS'594798'
p2460
(dp2461
g3
S'deGrom'
p2462
sg5
S'deGrom'
p2463
sg7
g2460
sg8
S'Jacob deGrom'
p2464
sg10
S'Jacob'
p2465
ssS'457454'
p2466
(dp2467
g3
S'Saltalamacchia'
p2468
sg5
S'Saltalamacchia'
p2469
sg7
g2466
sg8
S'Jarrod Saltalamacchia'
p2470
sg10
S'Jarrod'
p2471
ssS'475253'
p2472
(dp2473
g3
S'Smoak'
p2474
sg5
S'Smoak'
p2475
sg7
g2472
sg8
S'Justin Smoak'
p2476
sg10
S'Justin'
p2477
ssS'572191'
p2478
(dp2479
g3
S'Taylor, M'
p2480
sg5
S'Taylor'
p2481
sg7
g2478
sg8
S'Michael Taylor'
p2482
sg10
S'Michael'
p2483
ssS'572287'
p2484
(dp2485
g3
S'Zunino'
p2486
sg5
S'Zunino'
p2487
sg7
g2484
sg8
S'Mike Zunino'
p2488
sg10
S'Mike'
p2489
ssS'571553'
p2490
(dp2491
g3
S'Ceciliani'
p2492
sg5
S'Ceciliani'
p2493
sg7
g2490
sg8
S'Darrell Ceciliani'
p2494
sg10
S'Darrell'
p2495
ssS'545363'
p2496
(dp2497
g3
S'Turner, Ja'
p2498
sg5
S'Turner'
p2499
sg7
g2496
sg8
S'Jacob Turner'
p2500
sg10
S'Jacob'
p2501
ssS'519151'
p2502
(dp2503
g3
S'Pressly'
p2504
sg5
S'Pressly'
p2505
sg7
g2502
sg8
S'Ryan Pressly'
p2506
sg10
S'Ryan'
p2507
ssS'460086'
p2508
(dp2509
g3
S'Gordon, A'
p2510
sg5
S'Gordon'
p2511
sg7
g2508
sg8
S'Alex Gordon'
p2512
sg10
S'Alex'
p2513
ssS'543829'
p2514
(dp2515
g3
S'Gordon, D'
p2516
sg5
S'Gordon'
p2517
sg7
g2514
sg8
S'Dee Gordon'
p2518
sg10
S'Dee'
p2519
ssS'445988'
p2520
(dp2521
g3
S'Prado'
p2522
sg5
S'Prado'
p2523
sg7
g2520
sg8
S'Martin Prado'
p2524
sg10
S'Martin'
p2525
ssS'453178'
p2526
(dp2527
g3
S'Kennedy'
p2528
sg5
S'Kennedy'
p2529
sg7
g2526
sg8
S'Ian Kennedy'
p2530
sg10
S'Ian'
p2531
ssS'594986'
p2532
(dp2533
g3
S'Ryan, K'
p2534
sg5
S'Ryan'
p2535
sg7
g2532
sg8
S'Kyle Ryan'
p2536
sg10
S'Kyle'
p2537
ssS'542587'
p2538
(dp2539
g3
S'Araujo'
p2540
sg5
S'Araujo'
p2541
sg7
g2538
sg8
S'Elvis Araujo'
p2542
sg10
S'Elvis'
p2543
ssS'450172'
p2544
(dp2545
g3
S'Volquez'
p2546
sg5
S'Volquez'
p2547
sg7
g2544
sg8
S'Edinson Volquez'
p2548
sg10
S'Edinson'
p2549
ssS'115629'
p2550
(dp2551
g3
S'Hawkins'
p2552
sg5
S'Hawkins'
p2553
sg7
g2550
sg8
S'LaTroy Hawkins'
p2554
sg10
S'LaTroy'
p2555
ssS'519390'
p2556
(dp2557
g3
S'Vogt'
p2558
sg5
S'Vogt'
p2559
sg7
g2556
sg8
S'Stephen Vogt'
p2560
sg10
S'Stephen'
p2561
ssS'598264'
p2562
(dp2563
g3
S'Barnes, M'
p2564
sg5
S'Barnes'
p2565
sg7
g2562
sg8
S'Matt Barnes'
p2566
sg10
S'Matt'
p2567
ssS'598265'
p2568
(dp2569
g3
S'Bradley, J'
p2570
sg5
S'Bradley'
p2571
sg7
g2568
sg8
S'Jackie Bradley'
p2572
sg10
S'Jackie'
p2573
ssS'572788'
p2574
(dp2575
g3
S'Cravy'
p2576
sg5
S'Cravy'
p2577
sg7
g2574
sg8
S'Tyler Cravy'
p2578
sg10
S'Tyler'
p2579
ssS'543548'
p2580
(dp2581
g3
S'Milone'
p2582
sg5
S'Milone'
p2583
sg7
g2580
sg8
S'Tommy Milone'
p2584
sg10
S'Tommy'
p2585
ssS'425794'
p2586
(dp2587
g3
S'Wainwright'
p2588
sg5
S'Wainwright'
p2589
sg7
g2586
sg8
S'Adam Wainwright'
p2590
sg10
S'Adam'
p2591
ssS'605232'
p2592
(dp2593
g3
S'Finnegan'
p2594
sg5
S'Finnegan'
p2595
sg7
g2592
sg8
S'Brandon Finnegan'
p2596
sg10
S'Brandon'
p2597
ssS'543380'
p2598
(dp2599
g3
S'Jungmann'
p2600
sg5
S'Jungmann'
p2601
sg7
g2598
sg8
S'Taylor Jungmann'
p2602
sg10
S'Taylor'
p2603
ssS'425856'
p2604
(dp2605
g3
S'Floyd'
p2606
sg5
S'Floyd'
p2607
sg7
g2604
sg8
S'Gavin Floyd'
p2608
sg10
S'Gavin'
p2609
ssS'425557'
p2610
(dp2611
g3
S'Baker, J'
p2612
sg5
S'Baker'
p2613
sg7
g2610
sg8
S'Jeff Baker'
p2614
sg10
S'Jeff'
p2615
ssS'407819'
p2616
(dp2617
g3
S'Thornton'
p2618
sg5
S'Thornton'
p2619
sg7
g2616
sg8
S'Matt Thornton'
p2620
sg10
S'Matt'
p2621
ssS'622110'
p2622
(dp2623
g3
S'Duffy, M'
p2624
sg5
S'Duffy'
p2625
sg7
g2622
sg8
S'Matt Duffy'
p2626
sg10
S'Matt'
p2627
ssS'527048'
p2628
(dp2629
g3
S'Perez, M'
p2630
sg5
S'Perez'
p2631
sg7
g2628
sg8
S'Martin Perez'
p2632
sg10
S'Martin'
p2633
ssS'518902'
p2634
(dp2635
g3
S'Kozma'
p2636
sg5
S'Kozma'
p2637
sg7
g2634
sg8
S'Pete Kozma'
p2638
sg10
S'Pete'
p2639
ssS'502281'
p2640
(dp2641
g3
S'Hatley'
p2642
sg5
S'Hatley'
p2643
sg7
g2640
sg8
S'Marcus Hatley'
p2644
sg10
S'Marcus'
p2645
ssS'543760'
p2646
(dp2647
g3
S'Semien'
p2648
sg5
S'Semien'
p2649
sg7
g2646
sg8
S'Marcus Semien'
p2650
sg10
S'Marcus'
p2651
ssS'475582'
p2652
(dp2653
g3
S'Zimmerman'
p2654
sg5
S'Zimmerman'
p2655
sg7
g2652
sg8
S'Ryan Zimmerman'
p2656
sg10
S'Ryan'
p2657
ssS'516969'
p2658
(dp2659
g3
S'Herrera, K'
p2660
sg5
S'Herrera'
p2661
sg7
g2658
sg8
S'Kelvin Herrera'
p2662
sg10
S'Kelvin'
p2663
ssS'570731'
p2664
(dp2665
g3
S'Schoop'
p2666
sg5
S'Schoop'
p2667
sg7
g2664
sg8
S'Jonathan Schoop'
p2668
sg10
S'Jonathan'
p2669
ssS'543766'
p2670
(dp2671
g3
S'Shaw, B'
p2672
sg5
S'Shaw'
p2673
sg7
g2670
sg8
S'Bryan Shaw'
p2674
sg10
S'Bryan'
p2675
ssS'455117'
p2676
(dp2677
g3
S'Maldonado'
p2678
sg5
S'Maldonado'
p2679
sg7
g2676
sg8
S'Martin Maldonado'
p2680
sg10
S'Martin'
p2681
ssS'544993'
p2682
(dp2683
g3
S'Geltz'
p2684
sg5
S'Geltz'
p2685
sg7
g2682
sg8
S'Steve Geltz'
p2686
sg10
S'Steve'
p2687
ssS'457775'
p2688
(dp2689
g3
S'Jennings, D'
p2690
sg5
S'Jennings'
p2691
sg7
g2688
sg8
S'Desmond Jennings'
p2692
sg10
S'Desmond'
p2693
ssS'648717'
p2694
(dp2695
g3
S'Guerrero, A'
p2696
sg5
S'Guerrero'
p2697
sg7
g2694
sg8
S'Alex Guerrero'
p2698
sg10
S'Alex'
p2699
ssS'592781'
p2700
(dp2701
g3
S'Stites'
p2702
sg5
S'Stites'
p2703
sg7
g2700
sg8
S'Matt Stites'
p2704
sg10
S'Matt'
p2705
ssS'430611'
p2706
(dp2707
g3
S'Hart'
p2708
sg5
S'Hart'
p2709
sg7
g2706
sg8
S'Corey Hart'
p2710
sg10
S'Corey'
p2711
ssS'502210'
p2712
(dp2713
g3
S'Reddick'
p2714
sg5
S'Reddick'
p2715
sg7
g2712
sg8
S'Josh Reddick'
p2716
sg10
S'Josh'
p2717
ssS'502211'
p2718
(dp2719
g3
S'Bolsinger'
p2720
sg5
S'Bolsinger'
p2721
sg7
g2718
sg8
S'Mike Bolsinger'
p2722
sg10
S'Mike'
p2723
ssS'573186'
p2724
(dp2725
g3
S'Stroman'
p2726
sg5
S'Stroman'
p2727
sg7
g2724
sg8
S'Marcus Stroman'
p2728
sg10
S'Marcus'
p2729
ssS'595001'
p2730
(dp2731
g3
S'Smith, J'
p2732
sg5
S'Smith'
p2733
sg7
g2730
sg8
S'Josh Smith'
p2734
sg10
S'Josh'
p2735
ssS'573185'
p2736
(dp2737
g3
S'Straily'
p2738
sg5
S'Straily'
p2739
sg7
g2736
sg8
S'Dan Straily'
p2740
sg10
S'Dan'
p2741
ssS'542208'
p2742
(dp2743
g3
S'Perez, C'
p2744
sg5
S'Perez'
p2745
sg7
g2742
sg8
S'Carlos Perez'
p2746
sg10
S'Carlos'
p2747
ssS'400121'
p2748
(dp2749
g3
S'Martinez, V'
p2750
sg5
S'Martinez'
p2751
sg7
g2748
sg8
S'Victor Martinez'
p2752
sg10
S'Victor'
p2753
ssS'421685'
p2754
(dp2755
g3
S'Harang'
p2756
sg5
S'Harang'
p2757
sg7
g2754
sg8
S'Aaron Harang'
p2758
sg10
S'Aaron'
p2759
ssS'543169'
p2760
(dp2761
g3
S'Flynn'
p2762
sg5
S'Flynn'
p2763
sg7
g2760
sg8
S'Brian Flynn'
p2764
sg10
S'Brian'
p2765
ssS'446386'
p2766
(dp2767
g3
S'Guyer'
p2768
sg5
S'Guyer'
p2769
sg7
g2766
sg8
S'Brandon Guyer'
p2770
sg10
S'Brandon'
p2771
ssS'458681'
p2772
(dp2773
g3
S'Lynn'
p2774
sg5
S'Lynn'
p2775
sg7
g2772
sg8
S'Lance Lynn'
p2776
sg10
S'Lance'
p2777
ssS'477229'
p2778
(dp2779
g3
S'Walden'
p2780
sg5
S'Walden'
p2781
sg7
g2778
sg8
S'Jordan Walden'
p2782
sg10
S'Jordan'
p2783
ssS'543432'
p2784
(dp2785
g3
S'Lavarnway'
p2786
sg5
S'Lavarnway'
p2787
sg7
g2784
sg8
S'Ryan Lavarnway'
p2788
sg10
S'Ryan'
p2789
ssS'519083'
p2790
(dp2791
g3
S'Norris, D'
p2792
sg5
S'Norris'
p2793
sg7
g2790
sg8
S'Derek Norris'
p2794
sg10
S'Derek'
p2795
ssS'621439'
p2796
(dp2797
g3
S'Buxton'
p2798
sg5
S'Buxton'
p2799
sg7
g2796
sg8
S'Byron Buxton'
p2800
sg10
S'Byron'
p2801
ssS'592826'
p2802
(dp2803
g3
S'Velasquez'
p2804
sg5
S'Velasquez'
p2805
sg7
g2802
sg8
S'Vincent Velasquez'
p2806
sg10
S'Vincent'
p2807
ssS'474029'
p2808
(dp2809
g3
S'Putnam'
p2810
sg5
S'Putnam'
p2811
sg7
g2808
sg8
S'Zach Putnam'
p2812
sg10
S'Zach'
p2813
ssS'434378'
p2814
(dp2815
g3
S'Verlander'
p2816
sg5
S'Verlander'
p2817
sg7
g2814
sg8
S'Justin Verlander'
p2818
sg10
S'Justin'
p2819
ssS'571946'
p2820
(dp2821
g3
S'Miller, S'
p2822
sg5
S'Miller'
p2823
sg7
g2820
sg8
S'Shelby Miller'
p2824
sg10
S'Shelby'
p2825
ssS'501571'
p2826
(dp2827
g3
S'Lagares'
p2828
sg5
S'Lagares'
p2829
sg7
g2826
sg8
S'Juan Lagares'
p2830
sg10
S'Juan'
p2831
ssS'430203'
p2832
(dp2833
g3
S'DeJesus'
p2834
sg5
S'DeJesus'
p2835
sg7
g2832
sg8
S'David DeJesus'
p2836
sg10
S'David'
p2837
ssS'592609'
p2838
(dp2839
g3
S'Olt'
p2840
sg5
S'Olt'
p2841
sg7
g2838
sg8
S'Mike Olt'
p2842
sg10
S'Mike'
p2843
ssS'502522'
p2844
(dp2845
g3
S'Miller, J'
p2846
sg5
S'Miller'
p2847
sg7
g2844
sg8
S'Justin Miller'
p2848
sg10
S'Justin'
p2849
ssS'488912'
p2850
(dp2851
g3
S'Gosewisch'
p2852
sg5
S'Gosewisch'
p2853
sg7
g2850
sg8
S'Tuffy Gosewisch'
p2854
sg10
S'Tuffy'
p2855
ssS'489446'
p2856
(dp2857
g3
S'Yates'
p2858
sg5
S'Yates'
p2859
sg7
g2856
sg8
S'Kirby Yates'
p2860
sg10
S'Kirby'
p2861
ssS'592238'
p2862
(dp2863
g3
S'Cumpton'
p2864
sg5
S'Cumpton'
p2865
sg7
g2862
sg8
S'Brandon Cumpton'
p2866
sg10
S'Brandon'
p2867
ssS'456068'
p2868
(dp2869
g3
S'Gonzalez, Mi'
p2870
sg5
S'Gonzalez'
p2871
sg7
g2868
sg8
S'Miguel Gonzalez'
p2872
sg10
S'Miguel'
p2873
ssS'571735'
p2874
(dp2875
g3
S'Hale'
p2876
sg5
S'Hale'
p2877
sg7
g2874
sg8
S'David Hale'
p2878
sg10
S'David'
p2879
ssS'451775'
p2880
(dp2881
g3
S'Rodriguez, Fe'
p2882
sg5
S'Rodriguez'
p2883
sg7
g2880
sg8
S'Fernando Rodriguez'
p2884
sg10
S'Fernando'
p2885
ssS'444876'
p2886
(dp2887
g3
S'Escobar, A'
p2888
sg5
S'Escobar'
p2889
sg7
g2886
sg8
S'Alcides Escobar'
p2890
sg10
S'Alcides'
p2891
ssS'518703'
p2892
(dp2893
g3
S'Furbush'
p2894
sg5
S'Furbush'
p2895
sg7
g2892
sg8
S'Charlie Furbush'
p2896
sg10
S'Charlie'
p2897
ssS'475054'
p2898
(dp2899
g3
S'Roe'
p2900
sg5
S'Roe'
p2901
sg7
g2898
sg8
S'Chaz Roe'
p2902
sg10
S'Chaz'
p2903
ssS'445055'
p2904
(dp2905
g3
S'Jay'
p2906
sg5
S'Jay'
p2907
sg7
g2904
sg8
S'Jon Jay'
p2908
sg10
S'Jon'
p2909
ssS'458537'
p2910
(dp2911
g3
S'Luebke'
p2912
sg5
S'Luebke'
p2913
sg7
g2910
sg8
S'Cory Luebke'
p2914
sg10
S'Cory'
p2915
ssS'452035'
p2916
(dp2917
g3
S'Blanks'
p2918
sg5
S'Blanks'
p2919
sg7
g2916
sg8
S'Kyle Blanks'
p2920
sg10
S'Kyle'
p2921
ssS'490063'
p2922
(dp2923
g3
S'Garza'
p2924
sg5
S'Garza'
p2925
sg7
g2922
sg8
S'Matt Garza'
p2926
sg10
S'Matt'
p2927
ssS'518577'
p2928
(dp2929
g3
S'Cowgill'
p2930
sg5
S'Cowgill'
p2931
sg7
g2928
sg8
S'Collin Cowgill'
p2932
sg10
S'Collin'
p2933
ssS'519443'
p2934
(dp2935
g3
S'Workman'
p2936
sg5
S'Workman'
p2937
sg7
g2934
sg8
S'Brandon Workman'
p2938
sg10
S'Brandon'
p2939
ssS'493472'
p2940
(dp2941
g3
S'Campbell'
p2942
sg5
S'Campbell'
p2943
sg7
g2940
sg8
S'Eric Campbell'
p2944
sg10
S'Eric'
p2945
ssS'607054'
p2946
(dp2947
g3
S'Peterson, J'
p2948
sg5
S'Peterson'
p2949
sg7
g2946
sg8
S'Jace Peterson'
p2950
sg10
S'Jace'
p2951
ssS'405395'
p2952
(dp2953
g3
S'Pujols'
p2954
sg5
S'Pujols'
p2955
sg7
g2952
sg8
S'Albert Pujols'
p2956
sg10
S'Albert'
p2957
ssS'502327'
p2958
(dp2959
g3
S'Santiago'
p2960
sg5
S'Santiago'
p2961
sg7
g2958
sg8
S'Hector Santiago'
p2962
sg10
S'Hector'
p2963
ssS'543685'
p2964
(dp2965
g3
S'Rendon'
p2966
sg5
S'Rendon'
p2967
sg7
g2964
sg8
S'Anthony Rendon'
p2968
sg10
S'Anthony'
p2969
ssS'456776'
p2970
(dp2971
g3
S'Torres, A'
p2972
sg5
S'Torres'
p2973
sg7
g2970
sg8
S'Alex Torres'
p2974
sg10
S'Alex'
p2975
ssS'547180'
p2976
(dp2977
g3
S'Harper'
p2978
sg5
S'Harper'
p2979
sg7
g2976
sg8
S'Bryce Harper'
p2980
sg10
S'Bryce'
p2981
ssS'518595'
p2982
(dp2983
g3
S"d'Arnaud"
p2984
sg5
S"d'Arnaud"
p2985
sg7
g2982
sg8
S"Travis d'Arnaud"
p2986
sg10
S'Travis'
p2987
ssS'572138'
p2988
(dp2989
g3
S'Singleton'
p2990
sg5
S'Singleton'
p2991
sg7
g2988
sg8
S'Jon Singleton'
p2992
sg10
S'Jon'
p2993
ssS'502143'
p2994
(dp2995
g3
S'Valencia'
p2996
sg5
S'Valencia'
p2997
sg7
g2994
sg8
S'Danny Valencia'
p2998
sg10
S'Danny'
p2999
ssS'527055'
p3000
(dp3001
g3
S'Vizcaino'
p3002
sg5
S'Vizcaino'
p3003
sg7
g3000
sg8
S'Arodys Vizcaino'
p3004
sg10
S'Arodys'
p3005
ssS'502624'
p3006
(dp3007
g3
S'Anderson, C'
p3008
sg5
S'Anderson'
p3009
sg7
g3006
sg8
S'Chase Anderson'
p3010
sg10
S'Chase'
p3011
ssS'435622'
p3012
(dp3013
g3
S'Desmond'
p3014
sg5
S'Desmond'
p3015
sg7
g3012
sg8
S'Ian Desmond'
p3016
sg10
S'Ian'
p3017
ssS'518452'
p3018
(dp3019
g3
S'Bettis'
p3020
sg5
S'Bettis'
p3021
sg7
g3018
sg8
S'Chad Bettis'
p3022
sg10
S'Chad'
p3023
ssS'518911'
p3024
(dp3025
g3
S'Lambo'
p3026
sg5
S'Lambo'
p3027
sg7
g3024
sg8
S'Andrew Lambo'
p3028
sg10
S'Andrew'
p3029
ssS'572761'
p3030
(dp3031
g3
S'Carpenter, M'
p3032
sg5
S'Carpenter'
p3033
sg7
g3030
sg8
S'Matt Carpenter'
p3034
sg10
S'Matt'
p3035
ssS'434718'
p3036
(dp3037
g3
S'Street'
p3038
sg5
S'Street'
p3039
sg7
g3036
sg8
S'Huston Street'
p3040
sg10
S'Huston'
p3041
ssS'429719'
p3042
(dp3043
g3
S'Jackson, E'
p3044
sg5
S'Jackson'
p3045
sg7
g3042
sg8
S'Edwin Jackson'
p3046
sg10
S'Edwin'
p3047
ssS'488984'
p3048
(dp3049
g3
S'Hunter, T'
p3050
sg5
S'Hunter'
p3051
sg7
g3048
sg8
S'Tommy Hunter'
p3052
sg10
S'Tommy'
p3053
ssS'434658'
p3054
(dp3055
g3
S'Davis, R'
p3056
sg5
S'Davis'
p3057
sg7
g3054
sg8
S'Rajai Davis'
p3058
sg10
S'Rajai'
p3059
ssS'446099'
p3060
(dp3061
g3
S'Axford'
p3062
sg5
S'Axford'
p3063
sg7
g3060
sg8
S'John Axford'
p3064
sg10
S'John'
p3065
ssS'501593'
p3066
(dp3067
g3
S'Avilan'
p3068
sg5
S'Avilan'
p3069
sg7
g3066
sg8
S'Luis Avilan'
p3070
sg10
S'Luis'
p3071
ssS'408307'
p3072
(dp3073
g3
S'Crawford, C'
p3074
sg5
S'Crawford'
p3075
sg7
g3072
sg8
S'Carl Crawford'
p3076
sg10
S'Carl'
p3077
ssS'456501'
p3078
(dp3079
g3
S'Cueto'
p3080
sg5
S'Cueto'
p3081
sg7
g3078
sg8
S'Johnny Cueto'
p3082
sg10
S'Johnny'
p3083
ssS'605151'
p3084
(dp3085
g3
S'Bradley, A'
p3086
sg5
S'Bradley'
p3087
sg7
g3084
sg8
S'Archie Bradley'
p3088
sg10
S'Archie'
p3089
ssS'407781'
p3090
(dp3091
g3
S'Byrd'
p3092
sg5
S'Byrd'
p3093
sg7
g3090
sg8
S'Marlon Byrd'
p3094
sg10
S'Marlon'
p3095
ssS'488768'
p3096
(dp3097
g3
S'Cashner'
p3098
sg5
S'Cashner'
p3099
sg7
g3096
sg8
S'Andrew Cashner'
p3100
sg10
S'Andrew'
p3101
ssS'593934'
p3102
(dp3103
g3
S'Sano'
p3104
sg5
S'Sano'
p3105
sg7
g3102
sg8
S'Miguel Sano'
p3106
sg10
S'Miguel'
p3107
ssS'571740'
p3108
(dp3109
g3
S'Hamilton, B'
p3110
sg5
S'Hamilton'
p3111
sg7
g3108
sg8
S'Billy Hamilton'
p3112
sg10
S'Billy'
p3113
ssS'519237'
p3114
(dp3115
g3
S'Rupp'
p3116
sg5
S'Rupp'
p3117
sg7
g3114
sg8
S'Cameron Rupp'
p3118
sg10
S'Cameron'
p3119
ssS'444379'
p3120
(dp3121
g3
S'Jaso'
p3122
sg5
S'Jaso'
p3123
sg7
g3120
sg8
S'John Jaso'
p3124
sg10
S'John'
p3125
ssS'234194'
p3126
(dp3127
g3
S'Carlyle'
p3128
sg5
S'Carlyle'
p3129
sg7
g3126
sg8
S'Buddy Carlyle'
p3130
sg10
S'Buddy'
p3131
ssS'628356'
p3132
(dp3133
g3
S'Kang'
p3134
sg5
S'Kang'
p3135
sg7
g3132
sg8
S'Jung Ho Kang'
p3136
sg10
S'Jung Ho'
p3137
ssS'450203'
p3138
(dp3139
g3
S'Morton'
p3140
sg5
S'Morton'
p3141
sg7
g3138
sg8
S'Charlie Morton'
p3142
sg10
S'Charlie'
p3143
ssS'466988'
p3144
(dp3145
g3
S'Bonifacio, E'
p3146
sg5
S'Bonifacio'
p3147
sg7
g3144
sg8
S'Emilio Bonifacio'
p3148
sg10
S'Emilio'
p3149
ssS'463610'
p3150
(dp3151
g3
S'Petit, G'
p3152
sg5
S'Petit'
p3153
sg7
g3150
sg8
S'Gregorio Petit'
p3154
sg10
S'Gregorio'
p3155
ssS'444520'
p3156
(dp3157
g3
S'Breslow'
p3158
sg5
S'Breslow'
p3159
sg7
g3156
sg8
S'Craig Breslow'
p3160
sg10
S'Craig'
p3161
ssS'456701'
p3162
(dp3163
g3
S'Bailey'
p3164
sg5
S'Bailey'
p3165
sg7
g3162
sg8
S'Homer Bailey'
p3166
sg10
S'Homer'
p3167
ssS'453895'
p3168
(dp3169
g3
S'Ryan, B'
p3170
sg5
S'Ryan'
p3171
sg7
g3168
sg8
S'Brendan Ryan'
p3172
sg10
S'Brendan'
p3173
ssS'518692'
p3174
(dp3175
g3
S'Freeman'
p3176
sg5
S'Freeman'
p3177
sg7
g3174
sg8
S'Freddie Freeman'
p3178
sg10
S'Freddie'
p3179
ssS'429667'
p3180
(dp3181
g3
S'Howard'
p3182
sg5
S'Howard'
p3183
sg7
g3180
sg8
S'Ryan Howard'
p3184
sg10
S'Ryan'
p3185
ssS'592741'
p3186
(dp3187
g3
S'Shreve'
p3188
sg5
S'Shreve'
p3189
sg7
g3186
sg8
S'Chasen Shreve'
p3190
sg10
S'Chasen'
p3191
ssS'518626'
p3192
(dp3193
g3
S'Donaldson'
p3194
sg5
S'Donaldson'
p3195
sg7
g3192
sg8
S'Josh Donaldson'
p3196
sg10
S'Josh'
p3197
ssS'573064'
p3198
(dp3199
g3
S'Nuno'
p3200
sg5
S'Nuno'
p3201
sg7
g3198
sg8
S'Vidal Nuno'
p3202
sg10
S'Vidal'
p3203
ssS'572008'
p3204
(dp3205
g3
S'Owings'
p3206
sg5
S'Owings'
p3207
sg7
g3204
sg8
S'Chris Owings'
p3208
sg10
S'Chris'
p3209
ssS'554430'
p3210
(dp3211
g3
S'Wheeler, Z'
p3212
sg5
S'Wheeler'
p3213
sg7
g3210
sg8
S'Zack Wheeler'
p3214
sg10
S'Zack'
p3215
ssS'408236'
p3216
(dp3217
g3
S'Gonzalez, A'
p3218
sg5
S'Gonzalez'
p3219
sg7
g3216
sg8
S'Adrian Gonzalez'
p3220
sg10
S'Adrian'
p3221
ssS'519058'
p3222
(dp3223
g3
S'Moustakas'
p3224
sg5
S'Moustakas'
p3225
sg7
g3222
sg8
S'Mike Moustakas'
p3226
sg10
S'Mike'
p3227
ssS'431151'
p3228
(dp3229
g3
S'Wright, D'
p3230
sg5
S'Wright'
p3231
sg7
g3228
sg8
S'David Wright'
p3232
sg10
S'David'
p3233
ssS'218596'
p3234
(dp3235
g3
S'Hudson, T'
p3236
sg5
S'Hudson'
p3237
sg7
g3234
sg8
S'Tim Hudson'
p3238
sg10
S'Tim'
p3239
ssS'547749'
p3240
(dp3241
g3
S'Tazawa'
p3242
sg5
S'Tazawa'
p3243
sg7
g3240
sg8
S'Junichi Tazawa'
p3244
sg10
S'Junichi'
p3245
ssS'543543'
p3246
(dp3247
g3
S'Miller, B'
p3248
sg5
S'Miller'
p3249
sg7
g3246
sg8
S'Brad Miller'
p3250
sg10
S'Brad'
p3251
ssS'476270'
p3252
(dp3253
g3
S'Tolleson, St'
p3254
sg5
S'Tolleson'
p3255
sg7
g3252
sg8
S'Steve Tolleson'
p3256
sg10
S'Steve'
p3257
ssS'516416'
p3258
(dp3259
g3
S'Segura'
p3260
sg5
S'Segura'
p3261
sg7
g3258
sg8
S'Jean Segura'
p3262
sg10
S'Jean'
p3263
ssS'543228'
p3264
(dp3265
g3
S'Gomes, Y'
p3266
sg5
S'Gomes'
p3267
sg7
g3264
sg8
S'Yan Gomes'
p3268
sg10
S'Yan'
p3269
ssS'451085'
p3270
(dp3271
g3
S'Matusz'
p3272
sg5
S'Matusz'
p3273
sg7
g3270
sg8
S'Brian Matusz'
p3274
sg10
S'Brian'
p3275
ssS'474832'
p3276
(dp3277
g3
S'Belt'
p3278
sg5
S'Belt'
p3279
sg7
g3276
sg8
S'Brandon Belt'
p3280
sg10
S'Brandon'
p3281
ssS'451088'
p3282
(dp3283
g3
S'Sellers'
p3284
sg5
S'Sellers'
p3285
sg7
g3282
sg8
S'Justin Sellers'
p3286
sg10
S'Justin'
p3287
ssS'451089'
p3288
(dp3289
g3
S'Peterson, S'
p3290
sg5
S'Peterson'
p3291
sg7
g3288
sg8
S'Shane Peterson'
p3292
sg10
S'Shane'
p3293
ssS'533167'
p3294
(dp3295
g3
S'Shoemaker'
p3296
sg5
S'Shoemaker'
p3297
sg7
g3294
sg8
S'Matt Shoemaker'
p3298
sg10
S'Matt'
p3299
ssS'605476'
p3300
(dp3301
g3
S'Smith, Ca'
p3302
sg5
S'Smith'
p3303
sg7
g3300
sg8
S'Carson Smith'
p3304
sg10
S'Carson'
p3305
ssS'493159'
p3306
(dp3307
g3
S'Wada'
p3308
sg5
S'Wada'
p3309
sg7
g3306
sg8
S'Tsuyoshi Wada'
p3310
sg10
S'Tsuyoshi'
p3311
ssS'276519'
p3312
(dp3313
g3
S'Rollins'
p3314
sg5
S'Rollins'
p3315
sg7
g3312
sg8
S'Jimmy Rollins'
p3316
sg10
S'Jimmy'
p3317
ssS'461416'
p3318
(dp3319
g3
S'Venable'
p3320
sg5
S'Venable'
p3321
sg7
g3318
sg8
S'Will Venable'
p3322
sg10
S'Will'
p3323
ssS'425626'
p3324
(dp3325
g3
S'Capuano'
p3326
sg5
S'Capuano'
p3327
sg7
g3324
sg8
S'Chris Capuano'
p3328
sg10
S'Chris'
p3329
ssS'457429'
p3330
(dp3331
g3
S'Logan'
p3332
sg5
S'Logan'
p3333
sg7
g3330
sg8
S'Boone Logan'
p3334
sg10
S'Boone'
p3335
ssS'500610'
p3336
(dp3337
g3
S'Guerra, D'
p3338
sg5
S'Guerra'
p3339
sg7
g3336
sg8
S'Deolis Guerra'
p3340
sg10
S'Deolis'
p3341
ssS'543542'
p3342
(dp3343
g3
S'Meyer'
p3344
sg5
S'Meyer'
p3345
sg7
g3342
sg8
S'Alex Meyer'
p3346
sg10
S'Alex'
p3347
ssS'518693'
p3348
(dp3349
g3
S'Freeman, S'
p3350
sg5
S'Freeman'
p3351
sg7
g3348
sg8
S'Sam Freeman'
p3352
sg10
S'Sam'
p3353
ssS'493157'
p3354
(dp3355
g3
S'Uehara'
p3356
sg5
S'Uehara'
p3357
sg7
g3354
sg8
S'Koji Uehara'
p3358
sg10
S'Koji'
p3359
ssS'433589'
p3360
(dp3361
g3
S'Petit, Y'
p3362
sg5
S'Petit'
p3363
sg7
g3360
sg8
S'Yusmeiro Petit'
p3364
sg10
S'Yusmeiro'
p3365
ssS'472610'
p3366
(dp3367
g3
S'Garcia, Lu'
p3368
sg5
S'Garcia'
p3369
sg7
g3366
sg8
S'Luis Garcia'
p3370
sg10
S'Luis'
p3371
ssS'458015'
p3372
(dp3373
g3
S'Votto'
p3374
sg5
S'Votto'
p3375
sg7
g3372
sg8
S'Joey Votto'
p3376
sg10
S'Joey'
p3377
ssS'592836'
p3378
(dp3379
g3
S'Walker, T'
p3380
sg5
S'Walker'
p3381
sg7
g3378
sg8
S'Taijuan Walker'
p3382
sg10
S'Taijuan'
p3383
ssS'424325'
p3384
(dp3385
g3
S'Ross, D'
p3386
sg5
S'Ross'
p3387
sg7
g3384
sg8
S'David Ross'
p3388
sg10
S'David'
p3389
ssS'424324'
p3390
(dp3391
g3
S'Lee, C'
p3392
sg5
S'Lee'
p3393
sg7
g3390
sg8
S'Cliff Lee'
p3394
sg10
S'Cliff'
p3395
ssS'493351'
p3396
(dp3397
g3
S'Ramirez, Al'
p3398
sg5
S'Ramirez'
p3399
sg7
g3396
sg8
S'Alexei Ramirez'
p3400
sg10
S'Alexei'
p3401
ssS'433584'
p3402
(dp3403
g3
S'Hernandez, R'
p3404
sg5
S'Hernandez'
p3405
sg7
g3402
sg8
S'Roberto Hernandez'
p3406
sg10
S'Roberto'
p3407
ssS'433587'
p3408
(dp3409
g3
S'Hernandez, F'
p3410
sg5
S'Hernandez'
p3411
sg7
g3408
sg8
S'Felix Hernandez'
p3412
sg10
S'Felix'
p3413
ssS'433586'
p3414
(dp3415
g3
S'Casilla'
p3416
sg5
S'Casilla'
p3417
sg7
g3414
sg8
S'Santiago Casilla'
p3418
sg10
S'Santiago'
p3419
ssS'517008'
p3420
(dp3421
g3
S'Colome'
p3422
sg5
S'Colome'
p3423
sg7
g3420
sg8
S'Alex Colome'
p3424
sg10
S'Alex'
p3425
ssS'485567'
p3426
(dp3427
g3
S'Carrera'
p3428
sg5
S'Carrera'
p3429
sg7
g3426
sg8
S'Ezequiel Carrera'
p3430
sg10
S'Ezequiel'
p3431
ssS'430652'
p3432
(dp3433
g3
S'Bourgeois'
p3434
sg5
S'Bourgeois'
p3435
sg7
g3432
sg8
S'Jason Bourgeois'
p3436
sg10
S'Jason'
p3437
ssS'515052'
p3438
(dp3439
g3
S'Guaipe'
p3440
sg5
S'Guaipe'
p3441
sg7
g3438
sg8
S'Mayckol Guaipe'
p3442
sg10
S'Mayckol'
p3443
ssS'465629'
p3444
(dp3445
g3
S'Mujica'
p3446
sg5
S'Mujica'
p3447
sg7
g3444
sg8
S'Edward Mujica'
p3448
sg10
S'Edward'
p3449
ssS'543056'
p3450
(dp3451
g3
S'Coulombe'
p3452
sg5
S'Coulombe'
p3453
sg7
g3450
sg8
S'Daniel Coulombe'
p3454
sg10
S'Daniel'
p3455
ssS'489067'
p3456
(dp3457
g3
S'Lollis'
p3458
sg5
S'Lollis'
p3459
sg7
g3456
sg8
S'Ryan Lollis'
p3460
sg10
S'Ryan'
p3461
ssS'434628'
p3462
(dp3463
g3
S'Hammel'
p3464
sg5
S'Hammel'
p3465
sg7
g3462
sg8
S'Jason Hammel'
p3466
sg10
S'Jason'
p3467
ssS'519203'
p3468
(dp3469
g3
S'Rizzo'
p3470
sg5
S'Rizzo'
p3471
sg7
g3468
sg8
S'Anthony Rizzo'
p3472
sg10
S'Anthony'
p3473
ssS'460322'
p3474
(dp3475
g3
S'Richardson'
p3476
sg5
S'Richardson'
p3477
sg7
g3474
sg8
S'Antoan Richardson'
p3478
sg10
S'Antoan'
p3479
ssS'572096'
p3480
(dp3481
g3
S'Rosenthal'
p3482
sg5
S'Rosenthal'
p3483
sg7
g3480
sg8
S'Trevor Rosenthal'
p3484
sg10
S'Trevor'
p3485
ssS'571871'
p3486
(dp3487
g3
S'Krol'
p3488
sg5
S'Krol'
p3489
sg7
g3486
sg8
S'Ian Krol'
p3490
sg10
S'Ian'
p3491
ssS'477003'
p3492
(dp3493
g3
S'Niese'
p3494
sg5
S'Niese'
p3495
sg7
g3492
sg8
S'Jon Niese'
p3496
sg10
S'Jon'
p3497
ssS'543779'
p3498
(dp3499
g3
S'Siegrist'
p3500
sg5
S'Siegrist'
p3501
sg7
g3498
sg8
S'Kevin Siegrist'
p3502
sg10
S'Kevin'
p3503
ssS'592863'
p3504
(dp3505
g3
S'Williams, M'
p3506
sg5
S'Williams'
p3507
sg7
g3504
sg8
S'Mason Williams'
p3508
sg10
S'Mason'
p3509
ssS'621043'
p3510
(dp3511
g3
S'Correa'
p3512
sg5
S'Correa'
p3513
sg7
g3510
sg8
S'Carlos Correa'
p3514
sg10
S'Carlos'
p3515
ssS'150274'
p3516
(dp3517
g3
S'Nathan'
p3518
sg5
S'Nathan'
p3519
sg7
g3516
sg8
S'Joe Nathan'
p3520
sg10
S'Joe'
p3521
ssS'592518'
p3522
(dp3523
g3
S'Machado, M'
p3524
sg5
S'Machado'
p3525
sg7
g3522
sg8
S'Manny Machado'
p3526
sg10
S'Manny'
p3527
ssS'408299'
p3528
(dp3529
g3
S'Infante'
p3530
sg5
S'Infante'
p3531
sg7
g3528
sg8
S'Omar Infante'
p3532
sg10
S'Omar'
p3533
ssS'448159'
p3534
(dp3535
g3
S'Parra, M'
p3536
sg5
S'Parra'
p3537
sg7
g3534
sg8
S'Manny Parra'
p3538
sg10
S'Manny'
p3539
ssS'571448'
p3540
(dp3541
g3
S'Arenado'
p3542
sg5
S'Arenado'
p3543
sg7
g3540
sg8
S'Nolan Arenado'
p3544
sg10
S'Nolan'
p3545
ssS'502578'
p3546
(dp3547
g3
S'Barrett'
p3548
sg5
S'Barrett'
p3549
sg7
g3546
sg8
S'Aaron Barrett'
p3550
sg10
S'Aaron'
p3551
ssS'592885'
p3552
(dp3553
g3
S'Yelich'
p3554
sg5
S'Yelich'
p3555
sg7
g3552
sg8
S'Christian Yelich'
p3556
sg10
S'Christian'
p3557
ssS'608167'
p3558
(dp3559
g3
S'Aro'
p3560
sg5
S'Aro'
p3561
sg7
g3558
sg8
S'Jonathan Aro'
p3562
sg10
S'Jonathan'
p3563
ssS'570649'
p3564
(dp3565
g3
S'Ventura'
p3566
sg5
S'Ventura'
p3567
sg7
g3564
sg8
S'Yordano Ventura'
p3568
sg10
S'Yordano'
p3569
ssS'543716'
p3570
(dp3571
g3
S'Rollins, D'
p3572
sg5
S'Rollins'
p3573
sg7
g3570
sg8
S'David Rollins'
p3574
sg10
S'David'
p3575
ssS'518526'
p3576
(dp3577
g3
S'Carpenter, D'
p3578
sg5
S'Carpenter'
p3579
sg7
g3576
sg8
S'David Carpenter'
p3580
sg10
S'David'
p3581
ssS'592767'
p3582
(dp3583
g3
S'Smyly'
p3584
sg5
S'Smyly'
p3585
sg7
g3582
sg8
S'Drew Smyly'
p3586
sg10
S'Drew'
p3587
ssS'430603'
p3588
(dp3589
g3
S'Kelly, D'
p3590
sg5
S'Kelly'
p3591
sg7
g3588
sg8
S'Don Kelly'
p3592
sg10
S'Don'
p3593
ssS'448614'
p3594
(dp3595
g3
S'Torres, C'
p3596
sg5
S'Torres'
p3597
sg7
g3594
sg8
S'Carlos Torres'
p3598
sg10
S'Carlos'
p3599
ssS'424144'
p3600
(dp3601
g3
S'Perez, O'
p3602
sg5
S'Perez'
p3603
sg7
g3600
sg8
S'Oliver Perez'
p3604
sg10
S'Oliver'
p3605
ssS'150029'
p3606
(dp3607
g3
S'Werth'
p3608
sg5
S'Werth'
p3609
sg7
g3606
sg8
S'Jayson Werth'
p3610
sg10
S'Jayson'
p3611
ssS'457727'
p3612
(dp3613
g3
S'Maybin'
p3614
sg5
S'Maybin'
p3615
sg7
g3612
sg8
S'Cameron Maybin'
p3616
sg10
S'Cameron'
p3617
ssS'459964'
p3618
(dp3619
g3
S'Joyce'
p3620
sg5
S'Joyce'
p3621
sg7
g3618
sg8
S'Matt Joyce'
p3622
sg10
S'Matt'
p3623
ssS'501992'
p3624
(dp3625
g3
S'Karns'
p3626
sg5
S'Karns'
p3627
sg7
g3624
sg8
S'Nathan Karns'
p3628
sg10
S'Nathan'
p3629
ssS'435062'
p3630
(dp3631
g3
S'Kendrick, H'
p3632
sg5
S'Kendrick'
p3633
sg7
g3630
sg8
S'Howie Kendrick'
p3634
sg10
S'Howie'
p3635
ssS'545341'
p3636
(dp3637
g3
S'Grichuk'
p3638
sg5
S'Grichuk'
p3639
sg7
g3636
sg8
S'Randal Grichuk'
p3640
sg10
S'Randal'
p3641
ssS'517414'
p3642
(dp3643
g3
S'Delgado'
p3644
sg5
S'Delgado'
p3645
sg7
g3642
sg8
S'Randall Delgado'
p3646
sg10
S'Randall'
p3647
ssS'594815'
p3648
(dp3649
g3
S'Ferrell'
p3650
sg5
S'Ferrell'
p3651
sg7
g3648
sg8
S'Jeff Ferrell'
p3652
sg10
S'Jeff'
p3653
ssS'444935'
p3654
(dp3655
g3
S'Hagadone'
p3656
sg5
S'Hagadone'
p3657
sg7
g3654
sg8
S'Nick Hagadone'
p3658
sg10
S'Nick'
p3659
ssS'595032'
p3660
(dp3661
g3
S'Whitley'
p3662
sg5
S'Whitley'
p3663
sg7
g3660
sg8
S'Chase Whitley'
p3664
sg10
S'Chase'
p3665
ssS'458006'
p3666
(dp3667
g3
S'Albers'
p3668
sg5
S'Albers'
p3669
sg7
g3666
sg8
S'Matt Albers'
p3670
sg10
S'Matt'
p3671
ssS'452672'
p3672
(dp3673
g3
S'Hanigan'
p3674
sg5
S'Hanigan'
p3675
sg7
g3672
sg8
S'Ryan Hanigan'
p3676
sg10
S'Ryan'
p3677
ssS'501896'
p3678
(dp3679
g3
S'Freese'
p3680
sg5
S'Freese'
p3681
sg7
g3678
sg8
S'David Freese'
p3682
sg10
S'David'
p3683
ssS'502083'
p3684
(dp3685
g3
S'McAllister'
p3686
sg5
S'McAllister'
p3687
sg7
g3684
sg8
S'Zach McAllister'
p3688
sg10
S'Zach'
p3689
ssS'452678'
p3690
(dp3691
g3
S'Cabrera, A'
p3692
sg5
S'Cabrera'
p3693
sg7
g3690
sg8
S'Asdrubal Cabrera'
p3694
sg10
S'Asdrubal'
p3695
ssS'592341'
p3696
(dp3697
g3
S'Goforth'
p3698
sg5
S'Goforth'
p3699
sg7
g3696
sg8
S'David Goforth'
p3700
sg10
S'David'
p3701
ssS'592340'
p3702
(dp3703
g3
S'Goeddel'
p3704
sg5
S'Goeddel'
p3705
sg7
g3702
sg8
S'Erik Goeddel'
p3706
sg10
S'Erik'
p3707
ssS'520980'
p3708
(dp3709
g3
S'Baez, P'
p3710
sg5
S'Baez'
p3711
sg7
g3708
sg8
S'Pedro Baez'
p3712
sg10
S'Pedro'
p3713
ssS'572831'
p3714
(dp3715
g3
S'Edgin'
p3716
sg5
S'Edgin'
p3717
sg7
g3714
sg8
S'Josh Edgin'
p3718
sg10
S'Josh'
p3719
ssS'543401'
p3720
(dp3721
g3
S'Kipnis'
p3722
sg5
S'Kipnis'
p3723
sg7
g3720
sg8
S'Jason Kipnis'
p3724
sg10
S'Jason'
p3725
ssS'468406'
p3726
(dp3727
g3
S'Herrera, J'
p3728
sg5
S'Herrera'
p3729
sg7
g3726
sg8
S'Jonathan Herrera'
p3730
sg10
S'Jonathan'
p3731
ssS'592346'
p3732
(dp3733
g3
S'Gonzalez, Ch'
p3734
sg5
S'Gonzalez'
p3735
sg7
g3732
sg8
S'Chi Chi Gonzalez'
p3736
sg10
S'Chi Chi'
p3737
ssS'452095'
p3738
(dp3739
g3
S'Flowers'
p3740
sg5
S'Flowers'
p3741
sg7
g3738
sg8
S'Tyler Flowers'
p3742
sg10
S'Tyler'
p3743
ssS'136860'
p3744
(dp3745
g3
S'Beltran'
p3746
sg5
S'Beltran'
p3747
sg7
g3744
sg8
S'Carlos Beltran'
p3748
sg10
S'Carlos'
p3749
ssS'519166'
p3750
(dp3751
g3
S'Ramirez, N'
p3752
sg5
S'Ramirez'
p3753
sg7
g3750
sg8
S'Neil Ramirez'
p3754
sg10
S'Neil'
p3755
ssS'525768'
p3756
(dp3757
g3
S'Collins, T'
p3758
sg5
S'Collins'
p3759
sg7
g3756
sg8
S'Tim Collins'
p3760
sg10
S'Tim'
p3761
ssS'623184'
p3762
(dp3763
g3
S'Oberg'
p3764
sg5
S'Oberg'
p3765
sg7
g3762
sg8
S'Scott Oberg'
p3766
sg10
S'Scott'
p3767
ssS'446359'
p3768
(dp3769
g3
S'Cozart'
p3770
sg5
S'Cozart'
p3771
sg7
g3768
sg8
S'Zack Cozart'
p3772
sg10
S'Zack'
p3773
ssS'542266'
p3774
(dp3775
g3
S'Contreras'
p3776
sg5
S'Contreras'
p3777
sg7
g3774
sg8
S'Carlos Contreras'
p3778
sg10
S'Carlos'
p3779
ssS'523253'
p3780
(dp3781
g3
S'Forsythe'
p3782
sg5
S'Forsythe'
p3783
sg7
g3780
sg8
S'Logan Forsythe'
p3784
sg10
S'Logan'
p3785
ssS'502100'
p3786
(dp3787
g3
S'Presley'
p3788
sg5
S'Presley'
p3789
sg7
g3786
sg8
S'Alex Presley'
p3790
sg10
S'Alex'
p3791
ssS'605412'
p3792
(dp3793
g3
S'Panik'
p3794
sg5
S'Panik'
p3795
sg7
g3792
sg8
S'Joe Panik'
p3796
sg10
S'Joe'
p3797
ssS'453286'
p3798
(dp3799
g3
S'Scherzer'
p3800
sg5
S'Scherzer'
p3801
sg7
g3798
sg8
S'Max Scherzer'
p3802
sg10
S'Max'
p3803
ssS'491703'
p3804
(dp3805
g3
S'Feliz, N'
p3806
sg5
S'Feliz'
p3807
sg7
g3804
sg8
S'Neftali Feliz'
p3808
sg10
S'Neftali'
p3809
ssS'444843'
p3810
(dp3811
g3
S'Ethier'
p3812
sg5
S'Ethier'
p3813
sg7
g3810
sg8
S'Andre Ethier'
p3814
sg10
S'Andre'
p3815
ssS'501303'
p3816
(dp3817
g3
S'Adrianza'
p3818
sg5
S'Adrianza'
p3819
sg7
g3816
sg8
S'Ehire Adrianza'
p3820
sg10
S'Ehire'
p3821
ssS'491708'
p3822
(dp3823
g3
S'Caminero'
p3824
sg5
S'Caminero'
p3825
sg7
g3822
sg8
S'Arquimedes Caminero'
p3826
sg10
S'Arquimedes'
p3827
ssS'477165'
p3828
(dp3829
g3
S'Wallace'
p3830
sg5
S'Wallace'
p3831
sg7
g3828
sg8
S'Brett Wallace'
p3832
sg10
S'Brett'
p3833
ssS'489149'
p3834
(dp3835
g3
S'Morrison'
p3836
sg5
S'Morrison'
p3837
sg7
g3834
sg8
S'Logan Morrison'
p3838
sg10
S'Logan'
p3839
ssS'460283'
p3840
(dp3841
g3
S'Blevins'
p3842
sg5
S'Blevins'
p3843
sg7
g3840
sg8
S'Jerry Blevins'
p3844
sg10
S'Jerry'
p3845
ssS'571666'
p3846
(dp3847
g3
S'Fiers'
p3848
sg5
S'Fiers'
p3849
sg7
g3846
sg8
S'Mike Fiers'
p3850
sg10
S'Mike'
p3851
ssS'503449'
p3852
(dp3853
g3
S'Peralta, W'
p3854
sg5
S'Peralta'
p3855
sg7
g3852
sg8
S'Wily Peralta'
p3856
sg10
S'Wily'
p3857
ssS'474568'
p3858
(dp3859
g3
S'Mercer'
p3860
sg5
S'Mercer'
p3861
sg7
g3858
sg8
S'Jordy Mercer'
p3862
sg10
S'Jordy'
p3863
ssS'456078'
p3864
(dp3865
g3
S'Castillo, W'
p3866
sg5
S'Castillo'
p3867
sg7
g3864
sg8
S'Welington Castillo'
p3868
sg10
S'Welington'
p3869
ssS'544369'
p3870
(dp3871
g3
S'Gregorius'
p3872
sg5
S'Gregorius'
p3873
sg7
g3870
sg8
S'Didi Gregorius'
p3874
sg10
S'Didi'
p3875
ssS'444482'
p3876
(dp3877
g3
S'Peralta, D'
p3878
sg5
S'Peralta'
p3879
sg7
g3876
sg8
S'David Peralta'
p3880
sg10
S'David'
p3881
ssS'506702'
p3882
(dp3883
g3
S'Leon, S'
p3884
sg5
S'Leon'
p3885
sg7
g3882
sg8
S'Sandy Leon'
p3886
sg10
S'Sandy'
p3887
ssS'571704'
p3888
(dp3889
g3
S'Giles'
p3890
sg5
S'Giles'
p3891
sg7
g3888
sg8
S'Ken Giles'
p3892
sg10
S'Ken'
p3893
ssS'467055'
p3894
(dp3895
g3
S'Sandoval'
p3896
sg5
S'Sandoval'
p3897
sg7
g3894
sg8
S'Pablo Sandoval'
p3898
sg10
S'Pablo'
p3899
ssS'544931'
p3900
(dp3901
g3
S'Strasburg'
p3902
sg5
S'Strasburg'
p3903
sg7
g3900
sg8
S'Stephen Strasburg'
p3904
sg10
S'Stephen'
p3905
ssS'571901'
p3906
(dp3907
g3
S'Loup'
p3908
sg5
S'Loup'
p3909
sg7
g3906
sg8
S'Aaron Loup'
p3910
sg10
S'Aaron'
p3911
ssS'501822'
p3912
(dp3913
g3
S'Hatcher'
p3914
sg5
S'Hatcher'
p3915
sg7
g3912
sg8
S'Chris Hatcher'
p3916
sg10
S'Chris'
p3917
ssS'457708'
p3918
(dp3919
g3
S'Upton, J'
p3920
sg5
S'Upton'
p3921
sg7
g3918
sg8
S'Justin Upton'
p3922
sg10
S'Justin'
p3923
ssS'543900'
p3924
(dp3925
g3
S'Webb, D'
p3926
sg5
S'Webb'
p3927
sg7
g3924
sg8
S'Daniel Webb'
p3928
sg10
S'Daniel'
p3929
ssS'543903'
p3930
(dp3931
g3
S'Webster'
p3932
sg5
S'Webster'
p3933
sg7
g3930
sg8
S'Allen Webster'
p3934
sg10
S'Allen'
p3935
ssS'460008'
p3936
(dp3937
g3
S'Varvaro'
p3938
sg5
S'Varvaro'
p3939
sg7
g3936
sg8
S'Anthony Varvaro'
p3940
sg10
S'Anthony'
p3941
ssS'430589'
p3942
(dp3943
g3
S'Qualls'
p3944
sg5
S'Qualls'
p3945
sg7
g3942
sg8
S'Chad Qualls'
p3946
sg10
S'Chad'
p3947
ssS'455374'
p3948
(dp3949
g3
S'Bastardo'
p3950
sg5
S'Bastardo'
p3951
sg7
g3948
sg8
S'Antonio Bastardo'
p3952
sg10
S'Antonio'
p3953
ssS'425766'
p3954
(dp3955
g3
S'Loney'
p3956
sg5
S'Loney'
p3957
sg7
g3954
sg8
S'James Loney'
p3958
sg10
S'James'
p3959
ssS'444468'
p3960
(dp3961
g3
S'Rondon, H'
p3962
sg5
S'Rondon'
p3963
sg7
g3960
sg8
S'Hector Rondon'
p3964
sg10
S'Hector'
p3965
ssS'430580'
p3966
(dp3967
g3
S'Simon'
p3968
sg5
S'Simon'
p3969
sg7
g3966
sg8
S'Alfredo Simon'
p3970
sg10
S'Alfredo'
p3971
ssS'572041'
p3972
(dp3973
g3
S'Pollock'
p3974
sg5
S'Pollock'
p3975
sg7
g3972
sg8
S'A.J. Pollock'
p3976
sg10
S'A.J.'
p3977
ssS'518468'
p3978
(dp3979
g3
S'Blazek'
p3980
sg5
S'Blazek'
p3981
sg7
g3978
sg8
S'Michael Blazek'
p3982
sg10
S'Michael'
p3983
ssS'435063'
p3984
(dp3985
g3
S'Napoli'
p3986
sg5
S'Napoli'
p3987
sg7
g3984
sg8
S'Mike Napoli'
p3988
sg10
S'Mike'
p3989
ssS'450275'
p3990
(dp3991
g3
S'Lowe, M'
p3992
sg5
S'Lowe'
p3993
sg7
g3990
sg8
S'Mark Lowe'
p3994
sg10
S'Mark'
p3995
ssS'519317'
p3996
(dp3997
g3
S'Stanton'
p3998
sg5
S'Stanton'
p3999
sg7
g3996
sg8
S'Giancarlo Stanton'
p4000
sg10
S'Giancarlo'
p4001
ssS'435263'
p4002
(dp4003
g3
S'McCann, B'
p4004
sg5
S'McCann'
p4005
sg7
g4002
sg8
S'Brian McCann'
p4006
sg10
S'Brian'
p4007
ssS'541652'
p4008
(dp4009
g3
S'Rondon, B'
p4010
sg5
S'Rondon'
p4011
sg7
g4008
sg8
S'Bruce Rondon'
p4012
sg10
S'Bruce'
p4013
ssS'541650'
p4014
(dp4015
g3
S'Perez, H'
p4016
sg5
S'Perez'
p4017
sg7
g4014
sg8
S'Hernan Perez'
p4018
sg10
S'Hernan'
p4019
ssS'516811'
p4020
(dp4021
g3
S'Perez, E'
p4022
sg5
S'Perez'
p4023
sg7
g4020
sg8
S'Eury Perez'
p4024
sg10
S'Eury'
p4025
ssS'476589'
p4026
(dp4027
g3
S'Warren'
p4028
sg5
S'Warren'
p4029
sg7
g4026
sg8
S'Adam Warren'
p4030
sg10
S'Adam'
p4031
ssS'493114'
p4032
(dp4033
g3
S'Aoki'
p4034
sg5
S'Aoki'
p4035
sg7
g4032
sg8
S'Nori Aoki'
p4036
sg10
S'Nori'
p4037
ssS'543302'
p4038
(dp4039
g3
S'Herrmann'
p4040
sg5
S'Herrmann'
p4041
sg7
g4038
sg8
S'Chris Herrmann'
p4042
sg10
S'Chris'
p4043
ssS'605538'
p4044
(dp4045
g3
S'Wisler'
p4046
sg5
S'Wisler'
p4047
sg7
g4044
sg8
S'Matt Wisler'
p4048
sg10
S'Matt'
p4049
ssS'501789'
p4050
(dp4051
g3
S'Harris, W'
p4052
sg5
S'Harris'
p4053
sg7
g4050
sg8
S'Will Harris'
p4054
sg10
S'Will'
p4055
ssS'550298'
p4056
(dp4057
g3
S'Rodriguez, Y'
p4058
sg5
S'Rodriguez'
p4059
sg7
g4056
sg8
S'Yorman Rodriguez'
p4060
sg10
S'Yorman'
p4061
ssS'543305'
p4062
(dp4063
g3
S'Hicks, A'
p4064
sg5
S'Hicks'
p4065
sg7
g4062
sg8
S'Aaron Hicks'
p4066
sg10
S'Aaron'
p4067
ssS'501625'
p4068
(dp4069
g3
S'Alvarez, J'
p4070
sg5
S'Alvarez'
p4071
sg7
g4068
sg8
S'Jose Alvarez'
p4072
sg10
S'Jose'
p4073
ssS'460701'
p4074
(dp4075
g3
S'Russell, J'
p4076
sg5
S'Russell'
p4077
sg7
g4074
sg8
S'James Russell'
p4078
sg10
S'James'
p4079
ssS'407890'
p4080
(dp4081
g3
S'Lewis'
p4082
sg5
S'Lewis'
p4083
sg7
g4080
sg8
S'Colby Lewis'
p4084
sg10
S'Colby'
p4085
ssS'502010'
p4086
(dp4087
g3
S'Brigham'
p4088
sg5
S'Brigham'
p4089
sg7
g4086
sg8
S'Jake Brigham'
p4090
sg10
S'Jake'
p4091
ssS'523989'
p4092
(dp4093
g3
S'De La Rosa, R'
p4094
sg5
S'De La Rosa'
p4095
sg7
g4092
sg8
S'Rubby De La Rosa'
p4096
sg10
S'Rubby'
p4097
ssS'407893'
p4098
(dp4099
g3
S'Teixeira'
p4100
sg5
S'Teixeira'
p4101
sg7
g4098
sg8
S'Mark Teixeira'
p4102
sg10
S'Mark'
p4103
ssS'605125'
p4104
(dp4105
g3
S'Asche'
p4106
sg5
S'Asche'
p4107
sg7
g4104
sg8
S'Cody Asche'
p4108
sg10
S'Cody'
p4109
ssS'554234'
p4110
(dp4111
g3
S'Perez, W'
p4112
sg5
S'Perez'
p4113
sg7
g4110
sg8
S'Williams Perez'
p4114
sg10
S'Williams'
p4115
ssS'608349'
p4116
(dp4117
g3
S'Knebel'
p4118
sg5
S'Knebel'
p4119
sg7
g4116
sg8
S'Corey Knebel'
p4120
sg10
S'Corey'
p4121
ssS'543376'
p4122
(dp4123
g3
S'Joseph, C'
p4124
sg5
S'Joseph'
p4125
sg7
g4122
sg8
S'Caleb Joseph'
p4126
sg10
S'Caleb'
p4127
ssS'457763'
p4128
(dp4129
g3
S'Posey'
p4130
sg5
S'Posey'
p4131
sg7
g4128
sg8
S'Buster Posey'
p4132
sg10
S'Buster'
p4133
ssS'543148'
p4134
(dp4135
g3
S'Federowicz'
p4136
sg5
S'Federowicz'
p4137
sg7
g4134
sg8
S'Tim Federowicz'
p4138
sg10
S'Tim'
p4139
ssS'517593'
p4140
(dp4141
g3
S'Salazar'
p4142
sg5
S'Salazar'
p4143
sg7
g4140
sg8
S'Danny Salazar'
p4144
sg10
S'Danny'
p4145
ssS'488671'
p4146
(dp4147
g3
S'Avila'
p4148
sg5
S'Avila'
p4149
sg7
g4146
sg8
S'Alex Avila'
p4150
sg10
S'Alex'
p4151
ssS'112526'
p4152
(dp4153
g3
S'Colon, B'
p4154
sg5
S'Colon'
p4155
sg7
g4152
sg8
S'Bartolo Colon'
p4156
sg10
S'Bartolo'
p4157
ssS'520471'
p4158
(dp4159
g3
S'Galvis'
p4160
sg5
S'Galvis'
p4161
sg7
g4158
sg8
S'Freddy Galvis'
p4162
sg10
S'Freddy'
p4163
ssS'432934'
p4164
(dp4165
g3
S'Young, Cr'
p4166
sg5
S'Young'
p4167
sg7
g4164
sg8
S'Chris Young'
p4168
sg10
S'Chris'
p4169
ssS'588751'
p4170
(dp4171
g3
S'Hechavarria'
p4172
sg5
S'Hechavarria'
p4173
sg7
g4170
sg8
S'Adeiny Hechavarria'
p4174
sg10
S'Adeiny'
p4175
ssS'459429'
p4176
(dp4177
g3
S'McGee'
p4178
sg5
S'McGee'
p4179
sg7
g4176
sg8
S'Jake McGee'
p4180
sg10
S'Jake'
p4181
ssS'519168'
p4182
(dp4183
g3
S'Ranaudo'
p4184
sg5
S'Ranaudo'
p4185
sg7
g4182
sg8
S'Anthony Ranaudo'
p4186
sg10
S'Anthony'
p4187
ssS'547179'
p4188
(dp4189
g3
S'Lorenzen'
p4190
sg5
S'Lorenzen'
p4191
sg7
g4188
sg8
S'Michael Lorenzen'
p4192
sg10
S'Michael'
p4193
ssS'544759'
p4194
(dp4195
g3
S'Schultz'
p4196
sg5
S'Schultz'
p4197
sg7
g4194
sg8
S'Bo Schultz'
p4198
sg10
S'Bo'
p4199
ssS'542454'
p4200
(dp4201
g3
S'Santana, D'
p4202
sg5
S'Santana'
p4203
sg7
g4200
sg8
S'Danny Santana'
p4204
sg10
S'Danny'
p4205
ssS'460099'
p4206
(dp4207
g3
S'Reimold'
p4208
sg5
S'Reimold'
p4209
sg7
g4206
sg8
S'Nolan Reimold'
p4210
sg10
S'Nolan'
p4211
ssS'502026'
p4212
(dp4213
g3
S'Jeffress'
p4214
sg5
S'Jeffress'
p4215
sg7
g4212
sg8
S'Jeremy Jeffress'
p4216
sg10
S'Jeremy'
p4217
ssS'458919'
p4218
(dp4219
g3
S'Mattheus'
p4220
sg5
S'Mattheus'
p4221
sg7
g4218
sg8
S'Ryan Mattheus'
p4222
sg10
S'Ryan'
p4223
ssS'453172'
p4224
(dp4225
g3
S'Hughes, J'
p4226
sg5
S'Hughes'
p4227
sg7
g4224
sg8
S'Jared Hughes'
p4228
sg10
S'Jared'
p4229
ssS'624577'
p4230
(dp4231
g3
S'Puig'
p4232
sg5
S'Puig'
p4233
sg7
g4230
sg8
S'Yasiel Puig'
p4234
sg10
S'Yasiel'
p4235
ssS'453249'
p4236
(dp4237
g3
S'Manship'
p4238
sg5
S'Manship'
p4239
sg7
g4236
sg8
S'Jeff Manship'
p4240
sg10
S'Jeff'
p4241
ssS'429783'
p4242
(dp4243
g3
S'Betancourt'
p4244
sg5
S'Betancourt'
p4245
sg7
g4242
sg8
S'Rafael Betancourt'
p4246
sg10
S'Rafael'
p4247
ssS'543272'
p4248
(dp4249
g3
S'Hand'
p4250
sg5
S'Hand'
p4251
sg7
g4248
sg8
S'Brad Hand'
p4252
sg10
S'Brad'
p4253
ssS'543408'
p4254
(dp4255
g3
S'Koehler'
p4256
sg5
S'Koehler'
p4257
sg7
g4254
sg8
S'Tom Koehler'
p4258
sg10
S'Tom'
p4259
ssS'474233'
p4260
(dp4261
g3
S'Conger'
p4262
sg5
S'Conger'
p4263
sg7
g4260
sg8
S'Hank Conger'
p4264
sg10
S'Hank'
p4265
ssS'475416'
p4266
(dp4267
g3
S'Masterson'
p4268
sg5
S'Masterson'
p4269
sg7
g4266
sg8
S'Justin Masterson'
p4270
sg10
S'Justin'
p4271
ssS'543278'
p4272
(dp4273
g3
S'Hardy, B'
p4274
sg5
S'Hardy'
p4275
sg7
g4272
sg8
S'Blaine Hardy'
p4276
sg10
S'Blaine'
p4277
ssS'276520'
p4278
(dp4279
g3
S'Arroyo'
p4280
sg5
S'Arroyo'
p4281
sg7
g4278
sg8
S'Bronson Arroyo'
p4282
sg10
S'Bronson'
p4283
ssS'592869'
p4284
(dp4285
g3
S'Wilson, T'
p4286
sg5
S'Wilson'
p4287
sg7
g4284
sg8
S'Tyler Wilson'
p4288
sg10
S'Tyler'
p4289
ssS'605228'
p4290
(dp4291
g3
S'Fernandez, J'
p4292
sg5
S'Fernandez'
p4293
sg7
g4290
sg8
S'Jose Fernandez'
p4294
sg10
S'Jose'
p4295
ssS'605227'
p4296
(dp4297
g3
S'Featherston'
p4298
sg5
S'Featherston'
p4299
sg7
g4296
sg8
S'Taylor Featherston'
p4300
sg10
S'Taylor'
p4301
ssS'543776'
p4302
(dp4303
g3
S'Shuck'
p4304
sg5
S'Shuck'
p4305
sg7
g4302
sg8
S'J.B. Shuck'
p4306
sg10
S'J.B.'
p4307
ssS'425567'
p4308
(dp4309
g3
S'Rios'
p4310
sg5
S'Rios'
p4311
sg7
g4308
sg8
S'Alex Rios'
p4312
sg10
S'Alex'
p4313
ssS'425560'
p4314
(dp4315
g3
S'LaRoche'
p4316
sg5
S'LaRoche'
p4317
sg7
g4314
sg8
S'Adam LaRoche'
p4318
sg10
S'Adam'
p4319
ssS'445197'
p4320
(dp4321
g3
S'Dunn'
p4322
sg5
S'Dunn'
p4323
sg7
g4320
sg8
S'Mike Dunn'
p4324
sg10
S'Mike'
p4325
ssS'607680'
p4326
(dp4327
g3
S'Pillar'
p4328
sg5
S'Pillar'
p4329
sg7
g4326
sg8
S'Kevin Pillar'
p4330
sg10
S'Kevin'
p4331
ssS'276351'
p4332
(dp4333
g3
S'Grilli'
p4334
sg5
S'Grilli'
p4335
sg7
g4332
sg8
S'Jason Grilli'
p4336
sg10
S'Jason'
p4337
ssS'571561'
p4338
(dp4339
g3
S'Cingrani'
p4340
sg5
S'Cingrani'
p4341
sg7
g4338
sg8
S'Tony Cingrani'
p4342
sg10
S'Tony'
p4343
ssS'435043'
p4344
(dp4345
g3
S'Duke'
p4346
sg5
S'Duke'
p4347
sg7
g4344
sg8
S'Zach Duke'
p4348
sg10
S'Zach'
p4349
ssS'518934'
p4350
(dp4351
g3
S'LeMahieu'
p4352
sg5
S'LeMahieu'
p4353
sg7
g4350
sg8
S'DJ LeMahieu'
p4354
sg10
S'DJ'
p4355
ssS'543456'
p4356
(dp4357
g3
S'Lobstein'
p4358
sg5
S'Lobstein'
p4359
sg7
g4356
sg8
S'Kyle Lobstein'
p4360
sg10
S'Kyle'
p4361
ssS'537953'
p4362
(dp4363
g3
S'Nava'
p4364
sg5
S'Nava'
p4365
sg7
g4362
sg8
S'Daniel Nava'
p4366
sg10
S'Daniel'
p4367
ssS'516770'
p4368
(dp4369
g3
S'Castro, S'
p4370
sg5
S'Castro'
p4371
sg7
g4368
sg8
S'Starlin Castro'
p4372
sg10
S'Starlin'
p4373
ssS'527054'
p4374
(dp4375
g3
S'Teheran'
p4376
sg5
S'Teheran'
p4377
sg7
g4374
sg8
S'Julio Teheran'
p4378
sg10
S'Julio'
p4379
ssS'285078'
p4380
(dp4381
g3
S'Hamilton, J'
p4382
sg5
S'Hamilton'
p4383
sg7
g4380
sg8
S'Josh Hamilton'
p4384
sg10
S'Josh'
p4385
ssS'285079'
p4386
(dp4387
g3
S'Dickey'
p4388
sg5
S'Dickey'
p4389
sg7
g4386
sg8
S'R.A. Dickey'
p4390
sg10
S'R.A.'
p4391
ssS'452733'
p4392
(dp4393
g3
S'Gorzelanny'
p4394
sg5
S'Gorzelanny'
p4395
sg7
g4392
sg8
S'Tom Gorzelanny'
p4396
sg10
S'Tom'
p4397
ssS'455104'
p4398
(dp4399
g3
S'Iannetta'
p4400
sg5
S'Iannetta'
p4401
sg7
g4398
sg8
S'Chris Iannetta'
p4402
sg10
S'Chris'
p4403
ssS'457768'
p4404
(dp4405
g3
S'Morris, B'
p4406
sg5
S'Morris'
p4407
sg7
g4404
sg8
S'Bryan Morris'
p4408
sg10
S'Bryan'
p4409
ssS'573627'
p4410
(dp4411
g3
S'Vargas, K'
p4412
sg5
S'Vargas'
p4413
sg7
g4410
sg8
S'Kennys Vargas'
p4414
sg10
S'Kennys'
p4415
ssS'473879'
p4416
(dp4417
g3
S'Dyson, S'
p4418
sg5
S'Dyson'
p4419
sg7
g4416
sg8
S'Sam Dyson'
p4420
sg10
S'Sam'
p4421
ssS'606160'
p4422
(dp4423
g3
S'Montero, R'
p4424
sg5
S'Montero'
p4425
sg7
g4422
sg8
S'Rafael Montero'
p4426
sg10
S'Rafael'
p4427
ssS'608336'
p4428
(dp4429
g3
S'Gallo'
p4430
sg5
S'Gallo'
p4431
sg7
g4428
sg8
S'Joey Gallo'
p4432
sg10
S'Joey'
p4433
ssS'518875'
p4434
(dp4435
g3
S'Kelley'
p4436
sg5
S'Kelley'
p4437
sg7
g4434
sg8
S'Shawn Kelley'
p4438
sg10
S'Shawn'
p4439
ssS'457760'
p4440
(dp4441
g3
S'Dorn'
p4442
sg5
S'Dorn'
p4443
sg7
g4440
sg8
S'Danny Dorn'
p4444
sg10
S'Danny'
p4445
ssS'467094'
p4446
(dp4447
g3
S'Doubront'
p4448
sg5
S'Doubront'
p4449
sg7
g4446
sg8
S'Felix Doubront'
p4450
sg10
S'Felix'
p4451
ssS'467827'
p4452
(dp4453
g3
S'Parra, G'
p4454
sg5
S'Parra'
p4455
sg7
g4452
sg8
S'Gerardo Parra'
p4456
sg10
S'Gerardo'
p4457
ssS'543881'
p4458
(dp4459
g3
S'Villarreal'
p4460
sg5
S'Villarreal'
p4461
sg7
g4458
sg8
S'Pedro Villarreal'
p4462
sg10
S'Pedro'
p4463
ssS'502202'
p4464
(dp4465
g3
S'Boxberger'
p4466
sg5
S'Boxberger'
p4467
sg7
g4464
sg8
S'Brad Boxberger'
p4468
sg10
S'Brad'
p4469
ssS'425834'
p4470
(dp4471
g3
S'Upton Jr.'
p4472
sg5
S'Upton'
p4473
sg7
g4470
sg8
S'Melvin Upton'
p4474
sg10
S'Melvin'
p4475
ssS'543054'
p4476
(dp4477
g3
S'Cosart'
p4478
sg5
S'Cosart'
p4479
sg7
g4476
sg8
S'Jarred Cosart'
p4480
sg10
S'Jarred'
p4481
ssS'489294'
p4482
(dp4483
g3
S'Scheppers'
p4484
sg5
S'Scheppers'
p4485
sg7
g4482
sg8
S'Tanner Scheppers'
p4486
sg10
S'Tanner'
p4487
ssS'571875'
p4488
(dp4489
g3
S'Lamb, J'
p4490
sg5
S'Lamb'
p4491
sg7
g4488
sg8
S'Jake Lamb'
p4492
sg10
S'Jake'
p4493
ssS'430605'
p4494
(dp4495
g3
S'Raburn'
p4496
sg5
S'Raburn'
p4497
sg7
g4494
sg8
S'Ryan Raburn'
p4498
sg10
S'Ryan'
p4499
ssS'435045'
p4500
(dp4501
g3
S'Santos'
p4502
sg5
S'Santos'
p4503
sg7
g4500
sg8
S'Sergio Santos'
p4504
sg10
S'Sergio'
p4505
ssS'458731'
p4506
(dp4507
g3
S'Gardner'
p4508
sg5
S'Gardner'
p4509
sg7
g4506
sg8
S'Brett Gardner'
p4510
sg10
S'Brett'
p4511
ssS'458730'
p4512
(dp4513
g3
S'Parnell'
p4514
sg5
S'Parnell'
p4515
sg7
g4512
sg8
S'Bobby Parnell'
p4516
sg10
S'Bobby'
p4517
ssS'489119'
p4518
(dp4519
g3
S'Miley'
p4520
sg5
S'Miley'
p4521
sg7
g4518
sg8
S'Wade Miley'
p4522
sg10
S'Wade'
p4523
ssS'572971'
p4524
(dp4525
g3
S'Keuchel'
p4526
sg5
S'Keuchel'
p4527
sg7
g4524
sg8
S'Dallas Keuchel'
p4528
sg10
S'Dallas'
p4529
ssS'477195'
p4530
(dp4531
g3
S'Davis, I'
p4532
sg5
S'Davis'
p4533
sg7
g4530
sg8
S'Ike Davis'
p4534
sg10
S'Ike'
p4535
ssS'425664'
p4536
(dp4537
g3
S'Victorino'
p4538
sg5
S'Victorino'
p4539
sg7
g4536
sg8
S'Shane Victorino'
p4540
sg10
S'Shane'
p4541
ssS'581527'
p4542
(dp4543
g3
S'Travis'
p4544
sg5
S'Travis'
p4545
sg7
g4542
sg8
S'Devon Travis'
p4546
sg10
S'Devon'
p4547
ssS'448802'
p4548
(dp4549
g3
S'Garcia, J'
p4550
sg5
S'Garcia'
p4551
sg7
g4548
sg8
S'Jaime Garcia'
p4552
sg10
S'Jaime'
p4553
ssS'448801'
p4554
(dp4555
g3
S'Davis, C'
p4556
sg5
S'Davis'
p4557
sg7
g4554
sg8
S'Chris Davis'
p4558
sg10
S'Chris'
p4559
ssS'121347'
p4560
(dp4561
g3
S'Rodriguez, A'
p4562
sg5
S'Rodriguez'
p4563
sg7
g4560
sg8
S'Alex Rodriguez'
p4564
sg10
S'Alex'
p4565
ssS'502381'
p4566
(dp4567
g3
S'Gregerson'
p4568
sg5
S'Gregerson'
p4569
sg7
g4566
sg8
S'Luke Gregerson'
p4570
sg10
S'Luke'
p4571
ssS'465657'
p4572
(dp4573
g3
S'Soria'
p4574
sg5
S'Soria'
p4575
sg7
g4572
sg8
S'Joakim Soria'
p4576
sg10
S'Joakim'
p4577
ssS'592200'
p4578
(dp4579
g3
S'Casali'
p4580
sg5
S'Casali'
p4581
sg7
g4578
sg8
S'Curt Casali'
p4582
sg10
S'Curt'
p4583
ssS'571893'
p4584
(dp4585
g3
S'Liberatore'
p4586
sg5
S'Liberatore'
p4587
sg7
g4584
sg8
S'Adam Liberatore'
p4588
sg10
S'Adam'
p4589
ssS'488674'
p4590
(dp4591
g3
S'Badenhop'
p4592
sg5
S'Badenhop'
p4593
sg7
g4590
sg8
S'Burke Badenhop'
p4594
sg10
S'Burke'
p4595
ssS'489334'
p4596
(dp4597
g3
S'Stammen'
p4598
sg5
S'Stammen'
p4599
sg7
g4596
sg8
S'Craig Stammen'
p4600
sg10
S'Craig'
p4601
ssS'600303'
p4602
(dp4603
g3
S'La Stella'
p4604
sg5
S'La Stella'
p4605
sg7
g4602
sg8
S'Tommy La Stella'
p4606
sg10
S'Tommy'
p4607
ssS'430897'
p4608
(dp4609
g3
S'Swisher'
p4610
sg5
S'Swisher'
p4611
sg7
g4608
sg8
S'Nick Swisher'
p4612
sg10
S'Nick'
p4613
ssS'571951'
p4614
(dp4615
g3
S'Mitchell'
p4616
sg5
S'Mitchell'
p4617
sg7
g4614
sg8
S'Bryan Mitchell'
p4618
sg10
S'Bryan'
p4619
ssS'430895'
p4620
(dp4621
g3
S'Izturis'
p4622
sg5
S'Izturis'
p4623
sg7
g4620
sg8
S'Maicer Izturis'
p4624
sg10
S'Maicer'
p4625
ssS'456034'
p4626
(dp4627
g3
S'Price'
p4628
sg5
S'Price'
p4629
sg7
g4626
sg8
S'David Price'
p4630
sg10
S'David'
p4631
ssS'461833'
p4632
(dp4633
g3
S'Hughes, P'
p4634
sg5
S'Hughes'
p4635
sg7
g4632
sg8
S'Phil Hughes'
p4636
sg10
S'Phil'
p4637
ssS'474521'
p4638
(dp4639
g3
S'Tolleson, Sh'
p4640
sg5
S'Tolleson'
p4641
sg7
g4638
sg8
S'Shawn Tolleson'
p4642
sg10
S'Shawn'
p4643
ssS'456030'
p4644
(dp4645
g3
S'Pedroia'
p4646
sg5
S'Pedroia'
p4647
sg7
g4644
sg8
S'Dustin Pedroia'
p4648
sg10
S'Dustin'
p4649
ssS'594824'
p4650
(dp4651
g3
S'Garcia, G'
p4652
sg5
S'Garcia'
p4653
sg7
g4650
sg8
S'Greg Garcia'
p4654
sg10
S'Greg'
p4655
ssS'594828'
p4656
(dp4657
g3
S'Gattis'
p4658
sg5
S'Gattis'
p4659
sg7
g4656
sg8
S'Evan Gattis'
p4660
sg10
S'Evan'
p4661
ssS'467092'
p4662
(dp4663
g3
S'Ramos, W'
p4664
sg5
S'Ramos'
p4665
sg7
g4662
sg8
S'Wilson Ramos'
p4666
sg10
S'Wilson'
p4667
ssS'605486'
p4668
(dp4669
g3
S'Spangenberg'
p4670
sg5
S'Spangenberg'
p4671
sg7
g4668
sg8
S'Cory Spangenberg'
p4672
sg10
S'Cory'
p4673
ssS'518568'
p4674
(dp4675
g3
S'Colon, C'
p4676
sg5
S'Colon'
p4677
sg7
g4674
sg8
S'Christian Colon'
p4678
sg10
S'Christian'
p4679
ssS'430948'
p4680
(dp4681
g3
S'Callaspo'
p4682
sg5
S'Callaspo'
p4683
sg7
g4680
sg8
S'Alberto Callaspo'
p4684
sg10
S'Alberto'
p4685
ssS'443558'
p4686
(dp4687
g3
S'Cruz, N'
p4688
sg5
S'Cruz'
p4689
sg7
g4686
sg8
S'Nelson Cruz'
p4690
sg10
S'Nelson'
p4691
ssS'285064'
p4692
(dp4693
g3
S'Vogelsong'
p4694
sg5
S'Vogelsong'
p4695
sg7
g4692
sg8
S'Ryan Vogelsong'
p4696
sg10
S'Ryan'
p4697
ssS'452239'
p4698
(dp4699
g3
S'Maxwell'
p4700
sg5
S'Maxwell'
p4701
sg7
g4698
sg8
S'Justin Maxwell'
p4702
sg10
S'Justin'
p4703
ssS'430945'
p4704
(dp4705
g3
S'Jones, A'
p4706
sg5
S'Jones'
p4707
sg7
g4704
sg8
S'Adam Jones'
p4708
sg10
S'Adam'
p4709
ssS'545404'
p4710
(dp4711
g3
S'Beachy'
p4712
sg5
S'Beachy'
p4713
sg7
g4710
sg8
S'Brandon Beachy'
p4714
sg10
S'Brandon'
p4715
ssS'430947'
p4716
(dp4717
g3
S'Aybar'
p4718
sg5
S'Aybar'
p4719
sg7
g4716
sg8
S'Erick Aybar'
p4720
sg10
S'Erick'
p4721
ssS'518567'
p4722
(dp4723
g3
S'Collmenter'
p4724
sg5
S'Collmenter'
p4725
sg7
g4722
sg8
S'Josh Collmenter'
p4726
sg10
S'Josh'
p4727
ssS'519437'
p4728
(dp4729
g3
S'Withrow'
p4730
sg5
S'Withrow'
p4731
sg7
g4728
sg8
S'Chris Withrow'
p4732
sg10
S'Chris'
p4733
ssS'457711'
p4734
(dp4735
g3
S"O'Sullivan"
p4736
sg5
S"O'Sullivan"
p4737
sg7
g4734
sg8
S"Sean O'Sullivan"
p4738
sg10
S'Sean'
p4739
ssS'346793'
p4740
(dp4741
g3
S'Affeldt'
p4742
sg5
S'Affeldt'
p4743
sg7
g4740
sg8
S'Jeremy Affeldt'
p4744
sg10
S'Jeremy'
p4745
ssS'519184'
p4746
(dp4747
g3
S'Revere'
p4748
sg5
S'Revere'
p4749
sg7
g4746
sg8
S'Ben Revere'
p4750
sg10
S'Ben'
p4751
ssS'543022'
p4752
(dp4753
g3
S'Chatwood'
p4754
sg5
S'Chatwood'
p4755
sg7
g4752
sg8
S'Tyler Chatwood'
p4756
sg10
S'Tyler'
p4757
ssS'459987'
p4758
(dp4759
g3
S'Ramos, C'
p4760
sg5
S'Ramos'
p4761
sg7
g4758
sg8
S'Cesar Ramos'
p4762
sg10
S'Cesar'
p4763
ssS'573127'
p4764
(dp4765
g3
S'Rosscup'
p4766
sg5
S'Rosscup'
p4767
sg7
g4764
sg8
S'Zac Rosscup'
p4768
sg10
S'Zac'
p4769
ssS'499624'
p4770
(dp4771
g3
S'Colabello'
p4772
sg5
S'Colabello'
p4773
sg7
g4770
sg8
S'Chris Colabello'
p4774
sg10
S'Chris'
p4775
ssS'452254'
p4776
(dp4777
g3
S'Pence'
p4778
sg5
S'Pence'
p4779
sg7
g4776
sg8
S'Hunter Pence'
p4780
sg10
S'Hunter'
p4781
ssS'434540'
p4782
(dp4783
g3
S'Jones, G'
p4784
sg5
S'Jones'
p4785
sg7
g4782
sg8
S'Garrett Jones'
p4786
sg10
S'Garrett'
p4787
ssS'445156'
p4788
(dp4789
g3
S'Marshall, S'
p4790
sg5
S'Marshall'
p4791
sg7
g4788
sg8
S'Sean Marshall'
p4792
sg10
S'Sean'
p4793
ssS'502154'
p4794
(dp4795
g3
S'Britton'
p4796
sg5
S'Britton'
p4797
sg7
g4794
sg8
S'Zach Britton'
p4798
sg10
S'Zach'
p4799
ssS'435221'
p4800
(dp4801
g3
S'McCarthy'
p4802
sg5
S'McCarthy'
p4803
sg7
g4800
sg8
S'Brandon McCarthy'
p4804
sg10
S'Brandon'
p4805
ssS'455976'
p4806
(dp4807
g3
S'Markakis'
p4808
sg5
S'Markakis'
p4809
sg7
g4806
sg8
S'Nick Markakis'
p4810
sg10
S'Nick'
p4811
ssS'607387'
p4812
(dp4813
g3
S'Rua'
p4814
sg5
S'Rua'
p4815
sg7
g4812
sg8
S'Ryan Rua'
p4816
sg10
S'Ryan'
p4817
ssS'456379'
p4818
(dp4819
g3
S'Alburquerque'
p4820
sg5
S'Alburquerque'
p4821
sg7
g4818
sg8
S'Al Alburquerque'
p4822
sg10
S'Al'
p4823
ssS'641627'
p4824
(dp4825
g3
S'Gott'
p4826
sg5
S'Gott'
p4827
sg7
g4824
sg8
S'Trevor Gott'
p4828
sg10
S'Trevor'
p4829
ssS'595777'
p4830
(dp4831
g3
S'Profar'
p4832
sg5
S'Profar'
p4833
sg7
g4830
sg8
S'Jurickson Profar'
p4834
sg10
S'Jurickson'
p4835
ssS'474284'
p4836
(dp4837
g3
S'Rasmus, C'
p4838
sg5
S'Rasmus'
p4839
sg7
g4836
sg8
S'Cory Rasmus'
p4840
sg10
S'Cory'
p4841
ssS'527049'
p4842
(dp4843
g3
S'Puello'
p4844
sg5
S'Puello'
p4845
sg7
g4842
sg8
S'Cesar Puello'
p4846
sg10
S'Cesar'
p4847
ssS'518617'
p4848
(dp4849
g3
S'Diekman'
p4850
sg5
S'Diekman'
p4851
sg7
g4848
sg8
S'Jake Diekman'
p4852
sg10
S'Jake'
p4853
ssS'457706'
p4854
(dp4855
g3
S'Jackson, A'
p4856
sg5
S'Jackson'
p4857
sg7
g4854
sg8
S'Austin Jackson'
p4858
sg10
S'Austin'
p4859
ssS'500208'
p4860
(dp4861
g3
S'Solarte'
p4862
sg5
S'Solarte'
p4863
sg7
g4860
sg8
S'Yangervis Solarte'
p4864
sg10
S'Yangervis'
p4865
ssS'430404'
p4866
(dp4867
g3
S'Gomes, J'
p4868
sg5
S'Gomes'
p4869
sg7
g4866
sg8
S'Jonny Gomes'
p4870
sg10
S'Jonny'
p4871
ssS'434643'
p4872
(dp4873
g3
S'Rodriguez, W'
p4874
sg5
S'Rodriguez'
p4875
sg7
g4872
sg8
S'Wandy Rodriguez'
p4876
sg10
S'Wandy'
p4877
ssS'543939'
p4878
(dp4879
g3
S'Wong'
p4880
sg5
S'Wong'
p4881
sg7
g4878
sg8
S'Kolten Wong'
p4882
sg10
S'Kolten'
p4883
ssS'476704'
p4884
(dp4885
g3
S'Lowrie'
p4886
sg5
S'Lowrie'
p4887
sg7
g4884
sg8
S'Jed Lowrie'
p4888
sg10
S'Jed'
p4889
ssS'605169'
p4890
(dp4891
g3
S'Capps'
p4892
sg5
S'Capps'
p4893
sg7
g4890
sg8
S'Carter Capps'
p4894
sg10
S'Carter'
p4895
ssS'453343'
p4896
(dp4897
g3
S'Melancon'
p4898
sg5
S'Melancon'
p4899
sg7
g4896
sg8
S'Mark Melancon'
p4900
sg10
S'Mark'
p4901
ssS'407793'
p4902
(dp4903
g3
S'Lackey'
p4904
sg5
S'Lackey'
p4905
sg7
g4902
sg8
S'John Lackey'
p4906
sg10
S'John'
p4907
ssS'467008'
p4908
(dp4909
g3
S'Strop'
p4910
sg5
S'Strop'
p4911
sg7
g4908
sg8
S'Pedro Strop'
p4912
sg10
S'Pedro'
p4913
ssS'424825'
p4914
(dp4915
g3
S'Crisp'
p4916
sg5
S'Crisp'
p4917
sg7
g4914
sg8
S'Coco Crisp'
p4918
sg10
S'Coco'
p4919
ssS'456715'
p4920
(dp4921
g3
S'Cain, L'
p4922
sg5
S'Cain'
p4923
sg7
g4920
sg8
S'Lorenzo Cain'
p4924
sg10
S'Lorenzo'
p4925
ssS'456714'
p4926
(dp4927
g3
S'Butler, B'
p4928
sg5
S'Butler'
p4929
sg7
g4926
sg8
S'Billy Butler'
p4930
sg10
S'Billy'
p4931
ssS'532077'
p4932
(dp4933
g3
S'Osuna'
p4934
sg5
S'Osuna'
p4935
sg7
g4932
sg8
S'Roberto Osuna'
p4936
sg10
S'Roberto'
p4937
ssS'527043'
p4938
(dp4939
g3
S'Marte'
p4940
sg5
S'Marte'
p4941
sg7
g4938
sg8
S'Jefry Marte'
p4942
sg10
S'Jefry'
p4943
ssS'503556'
p4944
(dp4945
g3
S'Gonzalez, M'
p4946
sg5
S'Gonzalez'
p4947
sg7
g4944
sg8
S'Marwin Gonzalez'
p4948
sg10
S'Marwin'
p4949
ssS'543699'
p4950
(dp4951
g3
S'Roark'
p4952
sg5
S'Roark'
p4953
sg7
g4950
sg8
S'Tanner Roark'
p4954
sg10
S'Tanner'
p4955
ssS'542303'
p4956
(dp4957
g3
S'Ozuna'
p4958
sg5
S'Ozuna'
p4959
sg7
g4956
sg8
S'Marcell Ozuna'
p4960
sg10
S'Marcell'
p4961
ssS'630111'
p4962
(dp4963
g3
S'Tomas'
p4964
sg5
S'Tomas'
p4965
sg7
g4962
sg8
S'Yasmany Tomas'
p4966
sg10
S'Yasmany'
p4967
ssS'605309'
p4968
(dp4969
g3
S'Kela'
p4970
sg5
S'Kela'
p4971
sg7
g4968
sg8
S'Keone Kela'
p4972
sg10
S'Keone'
p4973
ssS'449079'
p4974
(dp4975
g3
S'Wright, W'
p4976
sg5
S'Wright'
p4977
sg7
g4974
sg8
S'Wesley Wright'
p4978
sg10
S'Wesley'
p4979
ssS'431145'
p4980
(dp4981
g3
S'Martin, R'
p4982
sg5
S'Martin'
p4983
sg7
g4980
sg8
S'Russell Martin'
p4984
sg10
S'Russell'
p4985
ssS'518735'
p4986
(dp4987
g3
S'Grandal'
p4988
sg5
S'Grandal'
p4989
sg7
g4986
sg8
S'Yasmani Grandal'
p4990
sg10
S'Yasmani'
p4991
ssS'425386'
p4992
(dp4993
g3
S'Guthrie'
p4994
sg5
S'Guthrie'
p4995
sg7
g4992
sg8
S'Jeremy Guthrie'
p4996
sg10
S'Jeremy'
p4997
ssS'425840'
p4998
(dp4999
g3
S'Cotts'
p5000
sg5
S'Cotts'
p5001
sg7
g4998
sg8
S'Neal Cotts'
p5002
sg10
S'Neal'
p5003
ssS'502285'
p5004
(dp5005
g3
S'Ladendorf'
p5006
sg5
S'Ladendorf'
p5007
sg7
g5004
sg8
S'Tyler Ladendorf'
p5008
sg10
S'Tyler'
p5009
ssS'475247'
p5010
(dp5011
g3
S'Flaherty'
p5012
sg5
S'Flaherty'
p5013
sg7
g5010
sg8
S'Ryan Flaherty'
p5014
sg10
S'Ryan'
p5015
ssS'518633'
p5016
(dp5017
g3
S'Duffy, D'
p5018
sg5
S'Duffy'
p5019
sg7
g5016
sg8
S'Danny Duffy'
p5020
sg10
S'Danny'
p5021
ssS'572019'
p5022
(dp5023
g3
S'Paulsen'
p5024
sg5
S'Paulsen'
p5025
sg7
g5022
sg8
S'Ben Paulsen'
p5026
sg10
S'Ben'
p5027
ssS'431148'
p5028
(dp5029
g3
S'Kazmir'
p5030
sg5
S'Kazmir'
p5031
sg7
g5028
sg8
S'Scott Kazmir'
p5032
sg10
S'Scott'
p5033
ssS'519322'
p5034
(dp5035
g3
S'Storen'
p5036
sg5
S'Storen'
p5037
sg7
g5034
sg8
S'Drew Storen'
p5038
sg10
S'Drew'
p5039
ssS'476883'
p5040
(dp5041
g3
S'Alvarez, P'
p5042
sg5
S'Alvarez'
p5043
sg7
g5040
sg8
S'Pedro Alvarez'
p5044
sg10
S'Pedro'
p5045
ssS'519048'
p5046
(dp5047
g3
S'Moreland'
p5048
sg5
S'Moreland'
p5049
sg7
g5046
sg8
S'Mitch Moreland'
p5050
sg10
S'Mitch'
p5051
ssS'519326'
p5052
(dp5053
g3
S'Strickland'
p5054
sg5
S'Strickland'
p5055
sg7
g5052
sg8
S'Hunter Strickland'
p5056
sg10
S'Hunter'
p5057
ssS'519043'
p5058
(dp5059
g3
S'Moore, M'
p5060
sg5
S'Moore'
p5061
sg7
g5058
sg8
S'Matt Moore'
p5062
sg10
S'Matt'
p5063
ssS'408241'
p5064
(dp5065
g3
S'Peavy'
p5066
sg5
S'Peavy'
p5067
sg7
g5064
sg8
S'Jake Peavy'
p5068
sg10
S'Jake'
p5069
ssS'435522'
p5070
(dp5071
g3
S'Walker, N'
p5072
sg5
S'Walker'
p5073
sg7
g5070
sg8
S'Neil Walker'
p5074
sg10
S'Neil'
p5075
ssS'453203'
p5076
(dp5077
g3
S'Robinson, S'
p5078
sg5
S'Robinson'
p5079
sg7
g5076
sg8
S'Shane Robinson'
p5080
sg10
S'Shane'
p5081
ssS'491646'
p5082
(dp5083
g3
S'Gomez, J'
p5084
sg5
S'Gomez'
p5085
sg7
g5082
sg8
S'Jeanmar Gomez'
p5086
sg10
S'Jeanmar'
p5087
ssS'543333'
p5088
(dp5089
g3
S'Hosmer'
p5090
sg5
S'Hosmer'
p5091
sg7
g5088
sg8
S'Eric Hosmer'
p5092
sg10
S'Eric'
p5093
ssS'450306'
p5094
(dp5095
g3
S'Vargas, J'
p5096
sg5
S'Vargas'
p5097
sg7
g5094
sg8
S'Jason Vargas'
p5098
sg10
S'Jason'
p5099
ssS'543331'
p5100
(dp5101
g3
S'Hoover'
p5102
sg5
S'Hoover'
p5103
sg7
g5100
sg8
S'J.J. Hoover'
p5104
sg10
S'J.J.'
p5105
ssS'592206'
p5106
(dp5107
g3
S'Castellanos'
p5108
sg5
S'Castellanos'
p5109
sg7
g5106
sg8
S'Nick Castellanos'
p5110
sg10
S'Nick'
p5111
ssS'456665'
p5112
(dp5113
g3
S'Pearce'
p5114
sg5
S'Pearce'
p5115
sg7
g5112
sg8
S'Steve Pearce'
p5116
sg10
S'Steve'
p5117
ssS'452234'
p5118
(dp5119
g3
S'Smith, S'
p5120
sg5
S'Smith'
p5121
sg7
g5118
sg8
S'Seth Smith'
p5122
sg10
S'Seth'
p5123
ssS'501647'
p5124
(dp5125
g3
S'Rosario, W'
p5126
sg5
S'Rosario'
p5127
sg7
g5124
sg8
S'Wilin Rosario'
p5128
sg10
S'Wilin'
p5129
ssS'450308'
p5130
(dp5131
g3
S'Weaver'
p5132
sg5
S'Weaver'
p5133
sg7
g5130
sg8
S'Jered Weaver'
p5134
sg10
S'Jered'
p5135
ssS'466320'
p5136
(dp5137
g3
S'Cabrera, Me'
p5138
sg5
S'Cabrera'
p5139
sg7
g5136
sg8
S'Melky Cabrera'
p5140
sg10
S'Melky'
p5141
ssS'407845'
p5142
(dp5143
g3
S'Rodney'
p5144
sg5
S'Rodney'
p5145
sg7
g5142
sg8
S'Fernando Rodney'
p5146
sg10
S'Fernando'
p5147
ssS'500871'
p5148
(dp5149
g3
S'Escobar, E'
p5150
sg5
S'Escobar'
p5151
sg7
g5148
sg8
S'Eduardo Escobar'
p5152
sg10
S'Eduardo'
p5153
ssS'518748'
p5154
(dp5155
g3
S'Grimm'
p5156
sg5
S'Grimm'
p5157
sg7
g5154
sg8
S'Justin Grimm'
p5158
sg10
S'Justin'
p5159
ssS'462564'
p5160
(dp5161
g3
S'Uggla'
p5162
sg5
S'Uggla'
p5163
sg7
g5160
sg8
S'Dan Uggla'
p5164
sg10
S'Dan'
p5165
ssS'502593'
p5166
(dp5167
g3
S'Petricka'
p5168
sg5
S'Petricka'
p5169
sg7
g5166
sg8
S'Jake Petricka'
p5170
sg10
S'Jake'
p5171
ssS'544727'
p5172
(dp5173
g3
S'Familia'
p5174
sg5
S'Familia'
p5175
sg7
g5172
sg8
S'Jeurys Familia'
p5176
sg10
S'Jeurys'
p5177
ssS'445163'
p5178
(dp5179
g3
S'Janssen'
p5180
sg5
S'Janssen'
p5181
sg7
g5178
sg8
S'Casey Janssen'
p5182
sg10
S'Casey'
p5183
ssS'571578'
p5184
(dp5185
g3
S'Corbin'
p5186
sg5
S'Corbin'
p5187
sg7
g5184
sg8
S'Patrick Corbin'
p5188
sg10
S'Patrick'
p5189
ssS'453646'
p5190
(dp5191
g3
S'Villanueva, Ca'
p5192
sg5
S'Villanueva'
p5193
sg7
g5190
sg8
S'Carlos Villanueva'
p5194
sg10
S'Carlos'
p5195
ssS'608379'
p5196
(dp5197
g3
S'Wacha'
p5198
sg5
S'Wacha'
p5199
sg7
g5196
sg8
S'Michael Wacha'
p5200
sg10
S'Michael'
p5201
ssS'425657'
p5202
(dp5203
g3
S'Lopez, J'
p5204
sg5
S'Lopez'
p5205
sg7
g5202
sg8
S'Javier Lopez'
p5206
sg10
S'Javier'
p5207
ssS'502462'
p5208
(dp5209
g3
S'Kelly, R'
p5210
sg5
S'Kelly'
p5211
sg7
g5208
sg8
S'Ryan Kelly'
p5212
sg10
S'Ryan'
p5213
ssS'474463'
p5214
(dp5215
g3
S'Anderson, B'
p5216
sg5
S'Anderson'
p5217
sg7
g5214
sg8
S'Brett Anderson'
p5218
sg10
S'Brett'
p5219
ssS'571479'
p5220
(dp5221
g3
S'Bellatti'
p5222
sg5
S'Bellatti'
p5223
sg7
g5220
sg8
S'Andrew Bellatti'
p5224
sg10
S'Andrew'
p5225
ssS'430641'
p5226
(dp5227
g3
S'Boyer'
p5228
sg5
S'Boyer'
p5229
sg7
g5226
sg8
S'Blaine Boyer'
p5230
sg10
S'Blaine'
p5231
ssS'462382'
p5232
(dp5233
g3
S'Johnson, J'
p5234
sg5
S'Johnson'
p5235
sg7
g5232
sg8
S'Jim Johnson'
p5236
sg10
S'Jim'
p5237
ssS'591712'
p5238
(dp5239
g3
S'Hernandez, O'
p5240
sg5
S'Hernandez'
p5241
sg7
g5238
sg8
S'Oscar Hernandez'
p5242
sg10
S'Oscar'
p5243
ssS'453056'
p5244
(dp5245
g3
S'Ellsbury'
p5246
sg5
S'Ellsbury'
p5247
sg7
g5244
sg8
S'Jacoby Ellsbury'
p5248
sg10
S'Jacoby'
p5249
ssS'547874'
p5250
(dp5251
g3
S'Iwakuma'
p5252
sg5
S'Iwakuma'
p5253
sg7
g5250
sg8
S'Hisashi Iwakuma'
p5254
sg10
S'Hisashi'
p5255
ssS'592332'
p5256
(dp5257
g3
S'Gausman'
p5258
sg5
S'Gausman'
p5259
sg7
g5256
sg8
S'Kevin Gausman'
p5260
sg10
S'Kevin'
p5261
ssS'458678'
p5262
(dp5263
g3
S'Broadway'
p5264
sg5
S'Broadway'
p5265
sg7
g5262
sg8
S'Mike Broadway'
p5266
sg10
S'Mike'
p5267
ssS'465041'
p5268
(dp5269
g3
S'Cervelli'
p5270
sg5
S'Cervelli'
p5271
sg7
g5268
sg8
S'Francisco Cervelli'
p5272
sg10
S'Francisco'
p5273
ssS'519345'
p5274
(dp5275
g3
S'Terdoslavich'
p5276
sg5
S'Terdoslavich'
p5277
sg7
g5274
sg8
S'Joey Terdoslavich'
p5278
sg10
S'Joey'
p5279
ssS'543521'
p5280
(dp5281
g3
S'McHugh'
p5282
sg5
S'McHugh'
p5283
sg7
g5280
sg8
S'Collin McHugh'
p5284
sg10
S'Collin'
p5285
ssS'570810'
p5286
(dp5287
g3
S'Bonilla'
p5288
sg5
S'Bonilla'
p5289
sg7
g5286
sg8
S'Lisalverto Bonilla'
p5290
sg10
S'Lisalverto'
p5291
ssS'450665'
p5292
(dp5293
g3
S'Medlen'
p5294
sg5
S'Medlen'
p5295
sg7
g5292
sg8
S'Kris Medlen'
p5296
sg10
S'Kris'
p5297
ssS'458675'
p5298
(dp5299
g3
S'Rasmus'
p5300
sg5
S'Rasmus'
p5301
sg7
g5298
sg8
S'Colby Rasmus'
p5302
sg10
S'Colby'
p5303
ssS'458677'
p5304
(dp5305
g3
S'Wilson, J'
p5306
sg5
S'Wilson'
p5307
sg7
g5304
sg8
S'Justin Wilson'
p5308
sg10
S'Justin'
p5309
ssS'605214'
p5310
(dp5311
g3
S'Dugas'
p5312
sg5
S'Dugas'
p5313
sg7
g5310
sg8
S'Taylor Dugas'
p5314
sg10
S'Taylor'
p5315
ssS'425532'
p5316
(dp5317
g3
S'Williams, J'
p5318
sg5
S'Williams'
p5319
sg7
g5316
sg8
S'Jerome Williams'
p5320
sg10
S'Jerome'
p5321
ssS'217100'
p5322
(dp5323
g3
S'Bloomquist'
p5324
sg5
S'Bloomquist'
p5325
sg7
g5322
sg8
S'Willie Bloomquist'
p5326
sg10
S'Willie'
p5327
ssS'501870'
p5328
(dp5329
g3
S'Teaford'
p5330
sg5
S'Teaford'
p5331
sg7
g5328
sg8
S'Everett Teaford'
p5332
sg10
S'Everett'
p5333
ssS'543242'
p5334
(dp5335
g3
S'Graham'
p5336
sg5
S'Graham'
p5337
sg7
g5334
sg8
S'J.R. Graham'
p5338
sg10
S'J.R.'
p5339
ssS'543243'
p5340
(dp5341
g3
S'Gray'
p5342
sg5
S'Gray'
p5343
sg7
g5340
sg8
S'Sonny Gray'
p5344
sg10
S'Sonny'
p5345
ssS'593372'
p5346
(dp5347
g3
S'Martinez, C'
p5348
sg5
S'Martinez'
p5349
sg7
g5346
sg8
S'Carlos Martinez'
p5350
sg10
S'Carlos'
p5351
ssS'448306'
p5352
(dp5353
g3
S'Shields'
p5354
sg5
S'Shields'
p5355
sg7
g5352
sg8
S'James Shields'
p5356
sg10
S'James'
p5357
ssS'571786'
p5358
(dp5359
g3
S'Hollands'
p5360
sg5
S'Hollands'
p5361
sg7
g5358
sg8
S'Mario Hollands'
p5362
sg10
S'Mario'
p5363
ssS'570717'
p5364
(dp5365
g3
S'Flores, R'
p5366
sg5
S'Flores'
p5367
sg7
g5364
sg8
S'Ramon Flores'
p5368
sg10
S'Ramon'
p5369
ssS'548357'
p5370
(dp5371
g3
S'Bergman'
p5372
sg5
S'Bergman'
p5373
sg7
g5370
sg8
S'Christian Bergman'
p5374
sg10
S'Christian'
p5375
ssS'518960'
p5376
(dp5377
g3
S'Lucroy'
p5378
sg5
S'Lucroy'
p5379
sg7
g5376
sg8
S'Jonathan Lucroy'
p5380
sg10
S'Jonathan'
p5381
ssS'543706'
p5382
(dp5383
g3
S'Robertson, Dn'
p5384
sg5
S'Robertson'
p5385
sg7
g5382
sg8
S'Daniel Robertson'
p5386
sg10
S'Daniel'
p5387
ssS'571788'
p5388
(dp5389
g3
S'Holt, B'
p5390
sg5
S'Holt'
p5391
sg7
g5388
sg8
S'Brock Holt'
p5392
sg10
S'Brock'
p5393
ssS'543294'
p5394
(dp5395
g3
S'Hendricks'
p5396
sg5
S'Hendricks'
p5397
sg7
g5394
sg8
S'Kyle Hendricks'
p5398
sg10
S'Kyle'
p5399
ssS'592717'
p5400
(dp5401
g3
S'Sanchez, A'
p5402
sg5
S'Sanchez'
p5403
sg7
g5400
sg8
S'Aaron Sanchez'
p5404
sg10
S'Aaron'
p5405
ssS'430613'
p5406
(dp5407
g3
S'Belisario'
p5408
sg5
S'Belisario'
p5409
sg7
g5406
sg8
S'Ronald Belisario'
p5410
sg10
S'Ronald'
p5411
ssS'458584'
p5412
(dp5413
g3
S'Cedeno'
p5414
sg5
S'Cedeno'
p5415
sg7
g5412
sg8
S'Xavier Cedeno'
p5416
sg10
S'Xavier'
p5417
ssS'457477'
p5418
(dp5419
g3
S'De Aza'
p5420
sg5
S'De Aza'
p5421
sg7
g5418
sg8
S'Alejandro De Aza'
p5422
sg10
S'Alejandro'
p5423
ssS'457759'
p5424
(dp5425
g3
S'Turner, Ju'
p5426
sg5
S'Turner'
p5427
sg7
g5424
sg8
S'Justin Turner'
p5428
sg10
S'Justin'
p5429
ssS'430637'
p5430
(dp5431
g3
S'Johnson, K'
p5432
sg5
S'Johnson'
p5433
sg7
g5430
sg8
S'Kelly Johnson'
p5434
sg10
S'Kelly'
p5435
ssS'571825'
p5436
(dp5437
g3
S'Jones, J'
p5438
sg5
S'Jones'
p5439
sg7
g5436
sg8
S'James Jones'
p5440
sg10
S'James'
p5441
ssS'452666'
p5442
(dp5443
g3
S'Wilhelmsen'
p5444
sg5
S'Wilhelmsen'
p5445
sg7
g5442
sg8
S'Tom Wilhelmsen'
p5446
sg10
S'Tom'
p5447
ssS'502374'
p5448
(dp5449
g3
S'McKenry'
p5450
sg5
S'McKenry'
p5451
sg7
g5448
sg8
S'Michael McKenry'
p5452
sg10
S'Michael'
p5453
ssS'430630'
p5454
(dp5455
g3
S'Frasor'
p5456
sg5
S'Frasor'
p5457
sg7
g5454
sg8
S'Jason Frasor'
p5458
sg10
S'Jason'
p5459
ssS'570267'
p5460
(dp5461
g3
S'Santana, Do'
p5462
sg5
S'Santana'
p5463
sg7
g5460
sg8
S'Domingo Santana'
p5464
sg10
S'Domingo'
p5465
ssS'595978'
p5466
(dp5467
g3
S'Hedges'
p5468
sg5
S'Hedges'
p5469
sg7
g5466
sg8
S'Austin Hedges'
p5470
sg10
S'Austin'
p5471
ssS'592789'
p5472
(dp5473
g3
S'Syndergaard'
p5474
sg5
S'Syndergaard'
p5475
sg7
g5472
sg8
S'Noah Syndergaard'
p5476
sg10
S'Noah'
p5477
ssS'543068'
p5478
(dp5479
g3
S'Cron'
p5480
sg5
S'Cron'
p5481
sg7
g5478
sg8
S'C.J. Cron'
p5482
sg10
S'C.J.'
p5483
ssS'516910'
p5484
(dp5485
g3
S'Frias'
p5486
sg5
S'Frias'
p5487
sg7
g5484
sg8
S'Carlos Frias'
p5488
sg10
S'Carlos'
p5489
ssS'434665'
p5490
(dp5491
g3
S'Masset'
p5492
sg5
S'Masset'
p5493
sg7
g5490
sg8
S'Nick Masset'
p5494
sg10
S'Nick'
p5495
ssS'493603'
p5496
(dp5497
g3
S'Ottavino'
p5498
sg5
S'Ottavino'
p5499
sg7
g5496
sg8
S'Adam Ottavino'
p5500
sg10
S'Adam'
p5501
ssS'543063'
p5502
(dp5503
g3
S'Crawford, B'
p5504
sg5
S'Crawford'
p5505
sg7
g5502
sg8
S'Brandon Crawford'
p5506
sg10
S'Brandon'
p5507
ssS'502272'
p5508
(dp5509
g3
S'Fien'
p5510
sg5
S'Fien'
p5511
sg7
g5508
sg8
S'Casey Fien'
p5512
sg10
S'Casey'
p5513
ssS'596059'
p5514
(dp5515
g3
S'Odor'
p5516
sg5
S'Odor'
p5517
sg7
g5514
sg8
S'Rougned Odor'
p5518
sg10
S'Rougned'
p5519
ssS'448281'
p5520
(dp5521
g3
S'Doolittle'
p5522
sg5
S'Doolittle'
p5523
sg7
g5520
sg8
S'Sean Doolittle'
p5524
sg10
S'Sean'
p5525
ssS'592612'
p5526
(dp5527
g3
S'Osich'
p5528
sg5
S'Osich'
p5529
sg7
g5526
sg8
S'Josh Osich'
p5530
sg10
S'Josh'
p5531
ssS'592626'
p5532
(dp5533
g3
S'Pederson'
p5534
sg5
S'Pederson'
p5535
sg7
g5532
sg8
S'Joc Pederson'
p5536
sg10
S'Joc'
p5537
ssS'506433'
p5538
(dp5539
g3
S'Darvish'
p5540
sg5
S'Darvish'
p5541
sg7
g5538
sg8
S'Yu Darvish'
p5542
sg10
S'Yu'
p5543
ssS'502054'
p5544
(dp5545
g3
S'Pham'
p5546
sg5
S'Pham'
p5547
sg7
g5544
sg8
S'Tommy Pham'
p5548
sg10
S'Tommy'
p5549
ssS'488681'
p5550
(dp5551
g3
S'Barnes, B'
p5552
sg5
S'Barnes'
p5553
sg7
g5550
sg8
S'Brandon Barnes'
p5554
sg10
S'Brandon'
p5555
ssS'434604'
p5556
(dp5557
g3
S'Morse'
p5558
sg5
S'Morse'
p5559
sg7
g5556
sg8
S'Michael Morse'
p5560
sg10
S'Michael'
p5561
ssS'502110'
p5562
(dp5563
g3
S'Martinez, J'
p5564
sg5
S'Martinez'
p5565
sg7
g5562
sg8
S'J.D. Martinez'
p5566
sg10
S'J.D.'
p5567
ssS'454560'
p5568
(dp5569
g3
S'Ellis'
p5570
sg5
S'Ellis'
p5571
sg7
g5568
sg8
S'A.J. Ellis'
p5572
sg10
S'A.J.'
p5573
ssS'488689'
p5574
(dp5575
g3
S'Baxter'
p5576
sg5
S'Baxter'
p5577
sg7
g5574
sg8
S'Mike Baxter'
p5578
sg10
S'Mike'
p5579
ssS'444857'
p5580
(dp5581
g3
S'Feldman'
p5582
sg5
S'Feldman'
p5583
sg7
g5580
sg8
S'Scott Feldman'
p5584
sg10
S'Scott'
p5585
ssS'150229'
p5586
(dp5587
g3
S'Pierzynski'
p5588
sg5
S'Pierzynski'
p5589
sg7
g5586
sg8
S'A.J. Pierzynski'
p5590
sg10
S'A.J.'
p5591
ssS'519267'
p5592
(dp5593
g3
S'Scribner'
p5594
sg5
S'Scribner'
p5595
sg7
g5592
sg8
S'Evan Scribner'
p5596
sg10
S'Evan'
p5597
ssS'592390'
p5598
(dp5599
g3
S'Hembree'
p5600
sg5
S'Hembree'
p5601
sg7
g5598
sg8
S'Heath Hembree'
p5602
sg10
S'Heath'
p5603
ssS'453385'
p5604
(dp5605
g3
S'Richard'
p5606
sg5
S'Richard'
p5607
sg7
g5604
sg8
S'Clayton Richard'
p5608
sg10
S'Clayton'
p5609
ssS'408061'
p5610
(dp5611
g3
S'Rodriguez, F'
p5612
sg5
S'Rodriguez'
p5613
sg7
g5610
sg8
S'Francisco Rodriguez'
p5614
sg10
S'Francisco'
p5615
ssS'518553'
p5616
(dp5617
g3
S'Cishek'
p5618
sg5
S'Cishek'
p5619
sg7
g5616
sg8
S'Steve Cishek'
p5620
sg10
S'Steve'
p5621
ssS'430912'
p5622
(dp5623
g3
S'Cain, M'
p5624
sg5
S'Cain'
p5625
sg7
g5622
sg8
S'Matt Cain'
p5626
sg10
S'Matt'
p5627
ssS'430911'
p5628
(dp5629
g3
S'Aardsma'
p5630
sg5
S'Aardsma'
p5631
sg7
g5628
sg8
S'David Aardsma'
p5632
sg10
S'David'
p5633
ssS'430910'
p5634
(dp5635
g3
S'Pena, B'
p5636
sg5
S'Pena'
p5637
sg7
g5634
sg8
S'Brayan Pena'
p5638
sg10
S'Brayan'
p5639
ssS'461865'
p5640
(dp5641
g3
S'Romine'
p5642
sg5
S'Romine'
p5643
sg7
g5640
sg8
S'Andrew Romine'
p5644
sg10
S'Andrew'
p5645
ssS'502188'
p5646
(dp5647
g3
S'Samardzija'
p5648
sg5
S'Samardzija'
p5649
sg7
g5646
sg8
S'Jeff Samardzija'
p5650
sg10
S'Jeff'
p5651
ssS'554340'
p5652
(dp5653
g3
S'Garcia, Y'
p5654
sg5
S'Garcia'
p5655
sg7
g5652
sg8
S'Yimi Garcia'
p5656
sg10
S'Yimi'
p5657
ssS'501381'
p5658
(dp5659
g3
S'Pineda'
p5660
sg5
S'Pineda'
p5661
sg7
g5658
sg8
S'Michael Pineda'
p5662
sg10
S'Michael'
p5663
ssS'502085'
p5664
(dp5665
g3
S'Robertson, D'
p5666
sg5
S'Robertson'
p5667
sg7
g5664
sg8
S'David Robertson'
p5668
sg10
S'David'
p5669
ssS'578428'
p5670
(dp5671
g3
S'Iglesias, J'
p5672
sg5
S'Iglesias'
p5673
sg7
g5670
sg8
S'Jose Iglesias'
p5674
sg10
S'Jose'
p5675
ssS'500743'
p5676
(dp5677
g3
S'Rojas'
p5678
sg5
S'Rojas'
p5679
sg7
g5676
sg8
S'Miguel Rojas'
p5680
sg10
S'Miguel'
p5681
ssS'461235'
p5682
(dp5683
g3
S'Moss'
p5684
sg5
S'Moss'
p5685
sg7
g5682
sg8
S'Brandon Moss'
p5686
sg10
S'Brandon'
p5687
ssS'571918'
p5688
(dp5689
g3
S'Marrero'
p5690
sg5
S'Marrero'
p5691
sg7
g5688
sg8
S'Deven Marrero'
p5692
sg10
S'Deven'
p5693
ssS'444432'
p5694
(dp5695
g3
S'Trumbo'
p5696
sg5
S'Trumbo'
p5697
sg7
g5694
sg8
S'Mark Trumbo'
p5698
sg10
S'Mark'
p5699
ssS'462985'
p5700
(dp5701
g3
S'Morales, F'
p5702
sg5
S'Morales'
p5703
sg7
g5700
sg8
S'Franklin Morales'
p5704
sg10
S'Franklin'
p5705
ssS'346798'
p5706
(dp5707
g3
S'Lohse'
p5708
sg5
S'Lohse'
p5709
sg7
g5706
sg8
S'Kyle Lohse'
p5710
sg10
S'Kyle'
p5711
ssS'430599'
p5712
(dp5713
g3
S'Blanton'
p5714
sg5
S'Blanton'
p5715
sg7
g5712
sg8
S'Joe Blanton'
p5716
sg10
S'Joe'
p5717
ssS'435078'
p5718
(dp5719
g3
S'Arias, Joa'
p5720
sg5
S'Arias'
p5721
sg7
g5718
sg8
S'Joaquin Arias'
p5722
sg10
S'Joaquin'
p5723
ssS'514888'
p5724
(dp5725
g3
S'Altuve'
p5726
sg5
S'Altuve'
p5727
sg7
g5724
sg8
S'Jose Altuve'
p5728
sg10
S'Jose'
p5729
ssS'120074'
p5730
(dp5731
g3
S'Ortiz, D'
p5732
sg5
S'Ortiz'
p5733
sg7
g5730
sg8
S'David Ortiz'
p5734
sg10
S'David'
p5735
ssS'543935'
p5736
(dp5737
g3
S'Wilson, A'
p5738
sg5
S'Wilson'
p5739
sg7
g5736
sg8
S'Alex Wilson'
p5740
sg10
S'Alex'
p5741
ssS'435178'
p5742
(dp5743
g3
S'Johnson, Jo'
p5744
sg5
S'Johnson'
p5745
sg7
g5742
sg8
S'Josh Johnson'
p5746
sg10
S'Josh'
p5747
ssS'518771'
p5748
(dp5749
g3
S'Harris, M'
p5750
sg5
S'Harris'
p5751
sg7
g5748
sg8
S'Mitch Harris'
p5752
sg10
S'Mitch'
p5753
ssS'518774'
p5754
(dp5755
g3
S'Harvey'
p5756
sg5
S'Harvey'
p5757
sg7
g5754
sg8
S'Matt Harvey'
p5758
sg10
S'Matt'
p5759
ssS'425772'
p5760
(dp5761
g3
S'Mathis'
p5762
sg5
S'Mathis'
p5763
sg7
g5760
sg8
S'Jeff Mathis'
p5764
sg10
S'Jeff'
p5765
ssS'607359'
p5766
(dp5767
g3
S'Patton'
p5768
sg5
S'Patton'
p5769
sg7
g5766
sg8
S'Spencer Patton'
p5770
sg10
S'Spencer'
p5771
ssS'446481'
p5772
(dp5773
g3
S'Rodriguez, S'
p5774
sg5
S'Rodriguez'
p5775
sg7
g5772
sg8
S'Sean Rodriguez'
p5776
sg10
S'Sean'
p5777
ssS'434670'
p5778
(dp5779
g3
S'Ramirez, H'
p5780
sg5
S'Ramirez'
p5781
sg7
g5778
sg8
S'Hanley Ramirez'
p5782
sg10
S'Hanley'
p5783
ssS'434778'
p5784
(dp5785
g3
S'Morales, K'
p5786
sg5
S'Morales'
p5787
sg7
g5784
sg8
S'Kendrys Morales'
p5788
sg10
S'Kendrys'
p5789
ssS'488846'
p5790
(dp5791
g3
S'Duensing'
p5792
sg5
S'Duensing'
p5793
sg7
g5790
sg8
S'Brian Duensing'
p5794
sg10
S'Brian'
p5795
ssS'446334'
p5796
(dp5797
g3
S'Longoria'
p5798
sg5
S'Longoria'
p5799
sg7
g5796
sg8
S'Evan Longoria'
p5800
sg10
S'Evan'
p5801
ssS'467100'
p5802
(dp5803
g3
S'Nova'
p5804
sg5
S'Nova'
p5805
sg7
g5802
sg8
S'Ivan Nova'
p5806
sg10
S'Ivan'
p5807
ssS'446321'
p5808
(dp5809
g3
S'Detwiler'
p5810
sg5
S'Detwiler'
p5811
sg7
g5808
sg8
S'Ross Detwiler'
p5812
sg10
S'Ross'
p5813
ssS'476454'
p5814
(dp5815
g3
S'Betances'
p5816
sg5
S'Betances'
p5817
sg7
g5814
sg8
S'Dellin Betances'
p5818
sg10
S'Dellin'
p5819
ssS'605135'
p5820
(dp5821
g3
S'Bassitt'
p5822
sg5
S'Bassitt'
p5823
sg7
g5820
sg8
S'Chris Bassitt'
p5824
sg10
S'Chris'
p5825
ssS'628333'
p5826
(dp5827
g3
S'Despaigne'
p5828
sg5
S'Despaigne'
p5829
sg7
g5826
sg8
S'Odrisamer Despaigne'
p5830
sg10
S'Odrisamer'
p5831
ssS'472551'
p5832
(dp5833
g3
S'Abad'
p5834
sg5
S'Abad'
p5835
sg7
g5832
sg8
S'Fernando Abad'
p5836
sg10
S'Fernando'
p5837
ssS'476451'
p5838
(dp5839
g3
S'Hellickson'
p5840
sg5
S'Hellickson'
p5841
sg7
g5838
sg8
S'Jeremy Hellickson'
p5842
sg10
S'Jeremy'
p5843
ssS'329092'
p5844
(dp5845
g3
S'Choate'
p5846
sg5
S'Choate'
p5847
sg7
g5844
sg8
S'Randy Choate'
p5848
sg10
S'Randy'
p5849
ssS'593958'
p5850
(dp5851
g3
S'Rodriguez, E'
p5852
sg5
S'Rodriguez'
p5853
sg7
g5850
sg8
S'Eduardo Rodriguez'
p5854
sg10
S'Eduardo'
p5855
ssS'543038'
p5856
(dp5857
g3
S'Coleman'
p5858
sg5
S'Coleman'
p5859
sg7
g5856
sg8
S'Dusty Coleman'
p5860
sg10
S'Dusty'
p5861
ssS'503285'
p5862
(dp5863
g3
S"O'Day"
p5864
sg5
S"O'Day"
p5865
sg7
g5862
sg8
S"Darren O'Day"
p5866
sg10
S'Darren'
p5867
ssS'572089'
p5868
(dp5869
g3
S'Rodriguez, P'
p5870
sg5
S'Rodriguez'
p5871
sg7
g5868
sg8
S'Paco Rodriguez'
p5872
sg10
S'Paco'
p5873
ssS'594777'
p5874
(dp5875
g3
S'Calhoun'
p5876
sg5
S'Calhoun'
p5877
sg7
g5874
sg8
S'Kole Calhoun'
p5878
sg10
S'Kole'
p5879
ssS'434181'
p5880
(dp5881
g3
S'League'
p5882
sg5
S'League'
p5883
sg7
g5880
sg8
S'Brandon League'
p5884
sg10
S'Brandon'
p5885
ss.